GAS LISTING C:\Users\OSZKR~1\AppData\Local\Temp/ccSXhMDa.s 			page 1


   1               		.file	"asuro.c"
   2               	__SREG__ = 0x3f
   3               	__SP_H__ = 0x3e
   4               	__SP_L__ = 0x3d
   5               	__CCP__  = 0x34
   6               	__tmp_reg__ = 0
   7               	__zero_reg__ = 1
   8               		.section	.debug_abbrev,"",@progbits
   9               	.Ldebug_abbrev0:
  10               		.section	.debug_info,"",@progbits
  11               	.Ldebug_info0:
  12               		.section	.debug_line,"",@progbits
  13               	.Ldebug_line0:
  14               		.text
  15               	.Ltext0:
  16               	.global	__vector_3
  17               		.type	__vector_3, @function
  18               	__vector_3:
  19               	.LFB2:
  20               	.LM1:
  21 0000 1F92      		push __zero_reg__
  22 0002 0F92      		push r0
  23 0004 0FB6      		in r0,__SREG__
  24 0006 0F92      		push r0
  25 0008 1124      		clr __zero_reg__
  26 000a 8F93      		push r24
  27               	/* prologue: Signal */
  28               	/* frame size = 0 */
  29               	.LM2:
  30 000c 8091 0000 		lds r24,count72kHz
  31 0010 8F5F      		subi r24,lo8(-(1))
  32 0012 8093 0000 		sts count72kHz,r24
  33               	/* epilogue start */
  34               	.LM3:
  35 0016 8F91      		pop r24
  36 0018 0F90      		pop r0
  37 001a 0FBE      		out __SREG__,r0
  38 001c 0F90      		pop r0
  39 001e 1F90      		pop __zero_reg__
  40 0020 1895      		reti
  41               	.LFE2:
  42               		.size	__vector_3, .-__vector_3
  43               	.global	MotorSpeed
  44               		.type	MotorSpeed, @function
  45               	MotorSpeed:
  46               	.LFB4:
  47               	.LM4:
  48               	.LVL0:
  49               	/* prologue: function */
  50               	/* frame size = 0 */
  51               	.LM5:
  52 0022 90E0      		ldi r25,lo8(0)
  53 0024 9BBD      		out (74)+1-32,r25
  54 0026 8ABD      		out 74-32,r24
  55               	.LVL1:
  56               	.LM6:
  57 0028 70E0      		ldi r23,lo8(0)
GAS LISTING C:\Users\OSZKR~1\AppData\Local\Temp/ccSXhMDa.s 			page 2


  58 002a 79BD      		out (72)+1-32,r23
  59 002c 68BD      		out 72-32,r22
  60               	.LVL2:
  61               	/* epilogue start */
  62               	.LM7:
  63 002e 0895      		ret
  64               	.LFE4:
  65               		.size	MotorSpeed, .-MotorSpeed
  66               	.global	MotorDir
  67               		.type	MotorDir, @function
  68               	MotorDir:
  69               	.LFB5:
  70               	.LM8:
  71               	.LVL3:
  72               	/* prologue: function */
  73               	/* frame size = 0 */
  74               	.LM9:
  75 0030 92B3      		in r25,50-32
  76 0032 9F7C      		andi r25,lo8(-49)
  77 0034 982B      		or r25,r24
  78 0036 92BB      		out 50-32,r25
  79               	.LM10:
  80 0038 88B3      		in r24,56-32
  81               	.LVL4:
  82 003a 8F7C      		andi r24,lo8(-49)
  83 003c 862B      		or r24,r22
  84 003e 88BB      		out 56-32,r24
  85               	/* epilogue start */
  86               	.LM11:
  87 0040 0895      		ret
  88               	.LFE5:
  89               		.size	MotorDir, .-MotorDir
  90               	.global	StatusLED
  91               		.type	StatusLED, @function
  92               	StatusLED:
  93               	.LFB6:
  94               	.LM12:
  95               	.LVL5:
  96               	/* prologue: function */
  97               	/* frame size = 0 */
  98               	.LM13:
  99 0042 8823      		tst r24
 100 0044 01F4      		brne .L8
 101 0046 C098      		cbi 56-32,0
 102 0048 00C0      		rjmp .L13
 103               	.L8:
 104               	.LM14:
 105 004a 8130      		cpi r24,lo8(1)
 106 004c 01F4      		brne .L10
 107 004e C09A      		sbi 56-32,0
 108               	.L13:
 109 0050 9298      		cbi 50-32,2
 110 0052 0895      		ret
 111               	.L10:
 112               	.LM15:
 113 0054 8330      		cpi r24,lo8(3)
 114 0056 01F4      		brne .L11
GAS LISTING C:\Users\OSZKR~1\AppData\Local\Temp/ccSXhMDa.s 			page 3


 115 0058 C09A      		sbi 56-32,0
 116 005a 929A      		sbi 50-32,2
 117 005c 0895      		ret
 118               	.L11:
 119               	.LM16:
 120 005e 8230      		cpi r24,lo8(2)
 121 0060 01F4      		brne .L12
 122 0062 C098      		cbi 56-32,0
 123 0064 929A      		sbi 50-32,2
 124               	.L12:
 125 0066 0895      		ret
 126               	.LFE6:
 127               		.size	StatusLED, .-StatusLED
 128               	.global	FrontLED
 129               		.type	FrontLED, @function
 130               	FrontLED:
 131               	.LFB7:
 132               	.LM17:
 133               	.LVL6:
 134               	/* prologue: function */
 135               	/* frame size = 0 */
 136               	.LM18:
 137 0068 92B3      		in r25,50-32
 138 006a 8295      		swap r24
 139               	.LVL7:
 140 006c 880F      		lsl r24
 141 006e 880F      		lsl r24
 142 0070 807C      		andi r24,lo8(-64)
 143 0072 9F7B      		andi r25,lo8(-65)
 144 0074 982B      		or r25,r24
 145 0076 92BB      		out 50-32,r25
 146               	/* epilogue start */
 147               	.LM19:
 148 0078 0895      		ret
 149               	.LFE7:
 150               		.size	FrontLED, .-FrontLED
 151               	.global	BackLED
 152               		.type	BackLED, @function
 153               	BackLED:
 154               	.LFB8:
 155               	.LM20:
 156               	.LVL8:
 157               	/* prologue: function */
 158               	/* frame size = 0 */
 159 007a 982F      		mov r25,r24
 160               	.LM21:
 161 007c 8823      		tst r24
 162 007e 01F4      		brne .L17
 163 0080 6623      		tst r22
 164 0082 01F0      		breq .L18
 165               	.L17:
 166               	.LM22:
 167 0084 9798      		cbi 50-32,7
 168               	.LM23:
 169 0086 84B3      		in r24,52-32
 170               	.LVL9:
 171 0088 8360      		ori r24,lo8(3)
GAS LISTING C:\Users\OSZKR~1\AppData\Local\Temp/ccSXhMDa.s 			page 4


 172 008a 84BB      		out 52-32,r24
 173               	.LM24:
 174 008c 85B3      		in r24,53-32
 175 008e 8360      		ori r24,lo8(3)
 176 0090 85BB      		out 53-32,r24
 177               	.LM25:
 178 0092 9923      		tst r25
 179 0094 01F4      		brne .L19
 180               	.LVL10:
 181               	.L18:
 182 0096 A998      		cbi 53-32,1
 183               	.L19:
 184               	.LM26:
 185 0098 6623      		tst r22
 186 009a 01F4      		brne .L21
 187 009c A898      		cbi 53-32,0
 188               	.L21:
 189 009e 0895      		ret
 190               	.LFE8:
 191               		.size	BackLED, .-BackLED
 192               	.global	Init
 193               		.type	Init, @function
 194               	Init:
 195               	.LFB3:
 196               	.LM27:
 197               	/* prologue: function */
 198               	/* frame size = 0 */
 199               	.LM28:
 200 00a0 89E1      		ldi r24,lo8(25)
 201 00a2 85BD      		out 69-32,r24
 202               	.LM29:
 203 00a4 8EE6      		ldi r24,lo8(110)
 204 00a6 83BD      		out 67-32,r24
 205               	.LM30:
 206 00a8 89B7      		in r24,89-32
 207 00aa 8068      		ori r24,lo8(-128)
 208 00ac 89BF      		out 89-32,r24
 209               	.LM31:
 210 00ae 1BB8      		out 43-32,__zero_reg__
 211               	.LM32:
 212 00b0 1AB8      		out 42-32,__zero_reg__
 213               	.LM33:
 214 00b2 96E8      		ldi r25,lo8(-122)
 215 00b4 90BD      		out 64-32,r25
 216               	.LM34:
 217 00b6 8FEC      		ldi r24,lo8(-49)
 218 00b8 89B9      		out 41-32,r24
 219               	.LM35:
 220 00ba 8FE3      		ldi r24,lo8(63)
 221 00bc 87BB      		out 55-32,r24
 222               	.LM36:
 223 00be 84EF      		ldi r24,lo8(-12)
 224 00c0 81BB      		out 49-32,r24
 225               	.LM37:
 226 00c2 81EA      		ldi r24,lo8(-95)
 227 00c4 8FBD      		out 79-32,r24
 228               	.LM38:
GAS LISTING C:\Users\OSZKR~1\AppData\Local\Temp/ccSXhMDa.s 			page 5


 229 00c6 82E0      		ldi r24,lo8(2)
 230 00c8 8EBD      		out 78-32,r24
 231               	.LM39:
 232 00ca 96B9      		out 38-32,r25
 233               	.LM40:
 234 00cc 9798      		cbi 50-32,7
 235               	.LBB10:
 236               	.LBB11:
 237               	.LM41:
 238 00ce 9698      		cbi 50-32,6
 239               	.LBE11:
 240               	.LBE10:
 241               	.LM42:
 242 00d0 81E0      		ldi r24,lo8(1)
 243 00d2 61E0      		ldi r22,lo8(1)
 244 00d4 00D0      		rcall BackLED
 245               	.LM43:
 246 00d6 80E0      		ldi r24,lo8(0)
 247 00d8 60E0      		ldi r22,lo8(0)
 248 00da 00D0      		rcall BackLED
 249               	.LM44:
 250 00dc 81E0      		ldi r24,lo8(1)
 251 00de 00D0      		rcall StatusLED
 252               	.LBB12:
 253               	.LBB13:
 254               	.LM45:
 255 00e0 82B3      		in r24,50-32
 256 00e2 8F7C      		andi r24,lo8(-49)
 257 00e4 8062      		ori r24,lo8(32)
 258 00e6 82BB      		out 50-32,r24
 259               	.LM46:
 260 00e8 88B3      		in r24,56-32
 261 00ea 8F7C      		andi r24,lo8(-49)
 262 00ec 8062      		ori r24,lo8(32)
 263 00ee 88BB      		out 56-32,r24
 264               	.LBE13:
 265               	.LBE12:
 266               	.LBB14:
 267               	.LBB15:
 268               	.LM47:
 269 00f0 1BBC      		out (74)+1-32,__zero_reg__
 270 00f2 1ABC      		out 74-32,__zero_reg__
 271               	.LM48:
 272 00f4 19BC      		out (72)+1-32,__zero_reg__
 273 00f6 18BC      		out 72-32,__zero_reg__
 274               	.LBE15:
 275               	.LBE14:
 276               	.LM49:
 277               	/* #APP */
 278               	 ;  74 "../asuro.c" 1
 279 00f8 7894      		sei
 280               	 ;  0 "" 2
 281               	/* epilogue start */
 282               	.LM50:
 283               	/* #NOAPP */
 284 00fa 0895      		ret
 285               	.LFE3:
GAS LISTING C:\Users\OSZKR~1\AppData\Local\Temp/ccSXhMDa.s 			page 6


 286               		.size	Init, .-Init
 287               	.global	LineData
 288               		.type	LineData, @function
 289               	LineData:
 290               	.LFB9:
 291               	.LM51:
 292               	.LVL11:
 293               	/* prologue: function */
 294               	/* frame size = 0 */
 295 00fc FC01      		movw r30,r24
 296               	.LM52:
 297 00fe 83E4      		ldi r24,lo8(67)
 298               	.LVL12:
 299 0100 87B9      		out 39-32,r24
 300               	.LM53:
 301 0102 369A      		sbi 38-32,6
 302               	.L25:
 303               	.LM54:
 304 0104 349B      		sbis 38-32,4
 305 0106 00C0      		rjmp .L25
 306               	.LM55:
 307 0108 349A      		sbi 38-32,4
 308               	.LM56:
 309 010a 34B1      		in r19,36-32
 310 010c 25B1      		in r18,37-32
 311 010e 922F      		mov r25,r18
 312 0110 80E0      		ldi r24,lo8(0)
 313 0112 830F      		add r24,r19
 314 0114 911D      		adc r25,__zero_reg__
 315 0116 9183      		std Z+1,r25
 316 0118 8083      		st Z,r24
 317               	.LM57:
 318 011a 82E4      		ldi r24,lo8(66)
 319 011c 87B9      		out 39-32,r24
 320               	.LM58:
 321 011e 369A      		sbi 38-32,6
 322               	.L26:
 323               	.LM59:
 324 0120 349B      		sbis 38-32,4
 325 0122 00C0      		rjmp .L26
 326               	.LM60:
 327 0124 349A      		sbi 38-32,4
 328               	.LM61:
 329 0126 34B1      		in r19,36-32
 330 0128 25B1      		in r18,37-32
 331 012a 922F      		mov r25,r18
 332 012c 80E0      		ldi r24,lo8(0)
 333 012e 830F      		add r24,r19
 334 0130 911D      		adc r25,__zero_reg__
 335 0132 9383      		std Z+3,r25
 336 0134 8283      		std Z+2,r24
 337               	/* epilogue start */
 338               	.LM62:
 339 0136 0895      		ret
 340               	.LFE9:
 341               		.size	LineData, .-LineData
 342               	.global	OdometrieData
GAS LISTING C:\Users\OSZKR~1\AppData\Local\Temp/ccSXhMDa.s 			page 7


 343               		.type	OdometrieData, @function
 344               	OdometrieData:
 345               	.LFB10:
 346               	.LM63:
 347               	.LVL13:
 348               	/* prologue: function */
 349               	/* frame size = 0 */
 350 0138 FC01      		movw r30,r24
 351               	.LM64:
 352 013a 84B3      		in r24,52-32
 353               	.LVL14:
 354 013c 8C7F      		andi r24,lo8(-4)
 355 013e 84BB      		out 52-32,r24
 356               	.LM65:
 357 0140 979A      		sbi 50-32,7
 358               	.LM66:
 359 0142 81E4      		ldi r24,lo8(65)
 360 0144 87B9      		out 39-32,r24
 361               	.LM67:
 362 0146 369A      		sbi 38-32,6
 363               	.L31:
 364               	.LM68:
 365 0148 349B      		sbis 38-32,4
 366 014a 00C0      		rjmp .L31
 367               	.LM69:
 368 014c 349A      		sbi 38-32,4
 369               	.LM70:
 370 014e 34B1      		in r19,36-32
 371 0150 25B1      		in r18,37-32
 372 0152 922F      		mov r25,r18
 373 0154 80E0      		ldi r24,lo8(0)
 374 0156 830F      		add r24,r19
 375 0158 911D      		adc r25,__zero_reg__
 376 015a 9183      		std Z+1,r25
 377 015c 8083      		st Z,r24
 378               	.LM71:
 379 015e 80E4      		ldi r24,lo8(64)
 380 0160 87B9      		out 39-32,r24
 381               	.LM72:
 382 0162 369A      		sbi 38-32,6
 383               	.L32:
 384               	.LM73:
 385 0164 349B      		sbis 38-32,4
 386 0166 00C0      		rjmp .L32
 387               	.LM74:
 388 0168 349A      		sbi 38-32,4
 389               	.LM75:
 390 016a 34B1      		in r19,36-32
 391 016c 25B1      		in r18,37-32
 392 016e 922F      		mov r25,r18
 393 0170 80E0      		ldi r24,lo8(0)
 394 0172 830F      		add r24,r19
 395 0174 911D      		adc r25,__zero_reg__
 396 0176 9383      		std Z+3,r25
 397 0178 8283      		std Z+2,r24
 398               	/* epilogue start */
 399               	.LM76:
GAS LISTING C:\Users\OSZKR~1\AppData\Local\Temp/ccSXhMDa.s 			page 8


 400 017a 0895      		ret
 401               	.LFE10:
 402               		.size	OdometrieData, .-OdometrieData
 403               	.global	SerWrite
 404               		.type	SerWrite, @function
 405               	SerWrite:
 406               	.LFB11:
 407               	.LM77:
 408               	.LVL15:
 409               	/* prologue: function */
 410               	/* frame size = 0 */
 411               	.LM78:
 412 017c 28E0      		ldi r18,lo8(8)
 413 017e 2AB9      		out 42-32,r18
 414 0180 FC01      		movw r30,r24
 415               	.LVL16:
 416 0182 00C0      		rjmp .L37
 417               	.L42:
 418               	.LM79:
 419 0184 5D9B      		sbis 43-32,5
 420 0186 00C0      		rjmp .L42
 421               	.LM80:
 422 0188 8191      		ld r24,Z+
 423 018a 8CB9      		out 44-32,r24
 424               	.LM81:
 425 018c 6150      		subi r22,lo8(-(-1))
 426               	.LVL17:
 427               	.L37:
 428               	.LM82:
 429 018e 6623      		tst r22
 430 0190 01F4      		brne .L42
 431               	.L41:
 432               	.LM83:
 433 0192 5E9B      		sbis 43-32,6
 434 0194 00C0      		rjmp .L41
 435               	/* epilogue start */
 436               	.LM84:
 437 0196 0895      		ret
 438               	.LFE11:
 439               		.size	SerWrite, .-SerWrite
 440               	.global	SerRead
 441               		.type	SerRead, @function
 442               	SerRead:
 443               	.LFB12:
 444               	.LM85:
 445               	.LVL18:
 446               	/* prologue: function */
 447               	/* frame size = 0 */
 448 0198 FC01      		movw r30,r24
 449               	.LM86:
 450 019a 80E1      		ldi r24,lo8(16)
 451               	.LVL19:
 452 019c 8AB9      		out 42-32,r24
 453               	.LM87:
 454 019e 4115      		cp r20,__zero_reg__
 455 01a0 5105      		cpc r21,__zero_reg__
 456 01a2 01F4      		brne .L46
GAS LISTING C:\Users\OSZKR~1\AppData\Local\Temp/ccSXhMDa.s 			page 9


 457 01a4 90E0      		ldi r25,lo8(0)
 458               	.LVL20:
 459 01a6 00C0      		rjmp .L47
 460               	.LVL21:
 461               	.L46:
 462 01a8 DF01      		movw r26,r30
 463 01aa 70E0      		ldi r23,lo8(0)
 464               	.LVL22:
 465 01ac 00C0      		rjmp .L48
 466               	.LVL23:
 467               	.L51:
 468               	.LM88:
 469 01ae 5F9B      		sbis 43-32,7
 470 01b0 00C0      		rjmp .L49
 471               	.LM89:
 472 01b2 8CB1      		in r24,44-32
 473 01b4 8D93      		st X+,r24
 474 01b6 7F5F      		subi r23,lo8(-(1))
 475               	.L48:
 476               	.LM90:
 477 01b8 7617      		cp r23,r22
 478 01ba 00F4      		brsh .L53
 479 01bc 20E0      		ldi r18,lo8(0)
 480 01be 30E0      		ldi r19,hi8(0)
 481               	.L49:
 482 01c0 2F5F      		subi r18,lo8(-(1))
 483 01c2 3F4F      		sbci r19,hi8(-(1))
 484 01c4 C901      		movw r24,r18
 485 01c6 0197      		sbiw r24,1
 486 01c8 8417      		cp r24,r20
 487 01ca 9507      		cpc r25,r21
 488 01cc 00F0      		brlo .L51
 489               	.LM91:
 490 01ce 4217      		cp r20,r18
 491 01d0 5307      		cpc r21,r19
 492 01d2 00F4      		brsh .L53
 493 01d4 84E5      		ldi r24,lo8(84)
 494 01d6 8083      		st Z,r24
 495 01d8 0895      		ret
 496               	.LVL24:
 497               	.L54:
 498               	.LM92:
 499 01da 5F9B      		sbis 43-32,7
 500 01dc 00C0      		rjmp .L54
 501               	.LM93:
 502 01de 8CB1      		in r24,44-32
 503 01e0 8193      		st Z+,r24
 504               	.LVL25:
 505 01e2 9F5F      		subi r25,lo8(-(1))
 506               	.LVL26:
 507               	.L47:
 508               	.LM94:
 509 01e4 9617      		cp r25,r22
 510 01e6 00F0      		brlo .L54
 511               	.LVL27:
 512               	.L53:
 513 01e8 0895      		ret
GAS LISTING C:\Users\OSZKR~1\AppData\Local\Temp/ccSXhMDa.s 			page 10


 514               	.LFE12:
 515               		.size	SerRead, .-SerRead
 516               	.global	PollSwitch
 517               		.type	PollSwitch, @function
 518               	PollSwitch:
 519               	.LFB13:
 520               	.LM95:
 521               	/* prologue: function */
 522               	/* frame size = 0 */
 523               	.LM96:
 524 01ea 8B9A      		sbi 49-32,3
 525               	.LM97:
 526 01ec 939A      		sbi 50-32,3
 527               	.LM98:
 528 01ee 84E4      		ldi r24,lo8(68)
 529 01f0 87B9      		out 39-32,r24
 530               	.LBB16:
 531               	.LBB17:
 532               	.LM99:
 533 01f2 1092 0000 		sts count72kHz,__zero_reg__
 534               	.L58:
 535               	.LM100:
 536 01f6 8091 0000 		lds r24,count72kHz
 537 01fa 8A30      		cpi r24,lo8(10)
 538 01fc 00F0      		brlo .L58
 539               	.LBE17:
 540               	.LBE16:
 541               	.LM101:
 542 01fe 369A      		sbi 38-32,6
 543               	.L59:
 544               	.LM102:
 545 0200 349B      		sbis 38-32,4
 546 0202 00C0      		rjmp .L59
 547               	.LM103:
 548 0204 349A      		sbi 38-32,4
 549               	.LM104:
 550 0206 34B1      		in r19,36-32
 551 0208 25B1      		in r18,37-32
 552               	.LM105:
 553 020a 9398      		cbi 50-32,3
 554 020c 722F      		mov r23,r18
 555 020e 60E0      		ldi r22,lo8(0)
 556 0210 630F      		add r22,r19
 557 0212 711D      		adc r23,__zero_reg__
 558 0214 80E0      		ldi r24,lo8(0)
 559 0216 90E0      		ldi r25,hi8(0)
 560 0218 00D0      		rcall __floatunsisf
 561 021a 9B01      		movw r18,r22
 562 021c AC01      		movw r20,r24
 563 021e 60E0      		ldi r22,lo8(0x44800000)
 564 0220 70E0      		ldi r23,hi8(0x44800000)
 565 0222 80E8      		ldi r24,hlo8(0x44800000)
 566 0224 94E4      		ldi r25,hhi8(0x44800000)
 567 0226 00D0      		rcall __divsf3
 568 0228 20E0      		ldi r18,lo8(0x3f800000)
 569 022a 30E0      		ldi r19,hi8(0x3f800000)
 570 022c 40E8      		ldi r20,hlo8(0x3f800000)
GAS LISTING C:\Users\OSZKR~1\AppData\Local\Temp/ccSXhMDa.s 			page 11


 571 022e 5FE3      		ldi r21,hhi8(0x3f800000)
 572 0230 00D0      		rcall __subsf3
 573 0232 20E0      		ldi r18,lo8(0x427c0000)
 574 0234 30E0      		ldi r19,hi8(0x427c0000)
 575 0236 4CE7      		ldi r20,hlo8(0x427c0000)
 576 0238 52E4      		ldi r21,hhi8(0x427c0000)
 577 023a 00D0      		rcall __mulsf3
 578 023c 20E0      		ldi r18,lo8(0x3f000000)
 579 023e 30E0      		ldi r19,hi8(0x3f000000)
 580 0240 40E0      		ldi r20,hlo8(0x3f000000)
 581 0242 5FE3      		ldi r21,hhi8(0x3f000000)
 582 0244 00D0      		rcall __addsf3
 583 0246 00D0      		rcall __fixunssfsi
 584 0248 DC01      		movw r26,r24
 585 024a CB01      		movw r24,r22
 586               	/* epilogue start */
 587               	.LM106:
 588 024c 0895      		ret
 589               	.LFE13:
 590               		.size	PollSwitch, .-PollSwitch
 591               	.global	StartSwitch
 592               		.type	StartSwitch, @function
 593               	StartSwitch:
 594               	.LFB14:
 595               	.LM107:
 596               	/* prologue: function */
 597               	/* frame size = 0 */
 598               	.LM108:
 599 024e 9398      		cbi 50-32,3
 600               	.LM109:
 601 0250 8B98      		cbi 49-32,3
 602               	.LM110:
 603 0252 85B7      		in r24,85-32
 604 0254 837F      		andi r24,lo8(-13)
 605 0256 85BF      		out 85-32,r24
 606               	.LM111:
 607 0258 8BB7      		in r24,91-32
 608 025a 8068      		ori r24,lo8(-128)
 609 025c 8BBF      		out 91-32,r24
 610               	/* epilogue start */
 611               	.LM112:
 612 025e 0895      		ret
 613               	.LFE14:
 614               		.size	StartSwitch, .-StartSwitch
 615               	.global	StopSwitch
 616               		.type	StopSwitch, @function
 617               	StopSwitch:
 618               	.LFB15:
 619               	.LM113:
 620               	/* prologue: function */
 621               	/* frame size = 0 */
 622               	.LM114:
 623 0260 8BB7      		in r24,91-32
 624 0262 8F77      		andi r24,lo8(127)
 625 0264 8BBF      		out 91-32,r24
 626               	/* epilogue start */
 627               	.LM115:
GAS LISTING C:\Users\OSZKR~1\AppData\Local\Temp/ccSXhMDa.s 			page 12


 628 0266 0895      		ret
 629               	.LFE15:
 630               		.size	StopSwitch, .-StopSwitch
 631               	.global	Sleep
 632               		.type	Sleep, @function
 633               	Sleep:
 634               	.LFB16:
 635               	.LM116:
 636               	.LVL28:
 637               	/* prologue: function */
 638               	/* frame size = 0 */
 639 0268 982F      		mov r25,r24
 640               	.LM117:
 641 026a 1092 0000 		sts count72kHz,__zero_reg__
 642               	.LVL29:
 643               	.L68:
 644               	.LM118:
 645 026e 8091 0000 		lds r24,count72kHz
 646 0272 8917      		cp r24,r25
 647 0274 00F0      		brlo .L68
 648               	/* epilogue start */
 649               	.LM119:
 650 0276 0895      		ret
 651               	.LFE16:
 652               		.size	Sleep, .-Sleep
 653               		.comm count72kHz,1,1
 654               		.section	.debug_frame,"",@progbits
 655               	.Lframe0:
 656 0000 0C00 0000 		.long	.LECIE0-.LSCIE0
 657               	.LSCIE0:
 658 0004 FFFF FFFF 		.long	0xffffffff
 659 0008 01        		.byte	0x1
 660 0009 00        		.string	""
 661 000a 01        		.uleb128 0x1
 662 000b 7F        		.sleb128 -1
 663 000c 24        		.byte	0x24
 664 000d 0C        		.byte	0xc
 665 000e 20        		.uleb128 0x20
 666 000f 00        		.uleb128 0x0
 667               		.p2align	2
 668               	.LECIE0:
 669               	.LSFDE0:
 670 0010 0C00 0000 		.long	.LEFDE0-.LASFDE0
 671               	.LASFDE0:
 672 0014 0000 0000 		.long	.Lframe0
 673 0018 0000 0000 		.long	.LFB2
 674 001c 2200 0000 		.long	.LFE2-.LFB2
 675               		.p2align	2
 676               	.LEFDE0:
 677               	.LSFDE2:
 678 0020 0C00 0000 		.long	.LEFDE2-.LASFDE2
 679               	.LASFDE2:
 680 0024 0000 0000 		.long	.Lframe0
 681 0028 0000 0000 		.long	.LFB4
 682 002c 0E00 0000 		.long	.LFE4-.LFB4
 683               		.p2align	2
 684               	.LEFDE2:
GAS LISTING C:\Users\OSZKR~1\AppData\Local\Temp/ccSXhMDa.s 			page 13


 685               	.LSFDE4:
 686 0030 0C00 0000 		.long	.LEFDE4-.LASFDE4
 687               	.LASFDE4:
 688 0034 0000 0000 		.long	.Lframe0
 689 0038 0000 0000 		.long	.LFB5
 690 003c 1200 0000 		.long	.LFE5-.LFB5
 691               		.p2align	2
 692               	.LEFDE4:
 693               	.LSFDE6:
 694 0040 0C00 0000 		.long	.LEFDE6-.LASFDE6
 695               	.LASFDE6:
 696 0044 0000 0000 		.long	.Lframe0
 697 0048 0000 0000 		.long	.LFB6
 698 004c 2600 0000 		.long	.LFE6-.LFB6
 699               		.p2align	2
 700               	.LEFDE6:
 701               	.LSFDE8:
 702 0050 0C00 0000 		.long	.LEFDE8-.LASFDE8
 703               	.LASFDE8:
 704 0054 0000 0000 		.long	.Lframe0
 705 0058 0000 0000 		.long	.LFB7
 706 005c 1200 0000 		.long	.LFE7-.LFB7
 707               		.p2align	2
 708               	.LEFDE8:
 709               	.LSFDE10:
 710 0060 0C00 0000 		.long	.LEFDE10-.LASFDE10
 711               	.LASFDE10:
 712 0064 0000 0000 		.long	.Lframe0
 713 0068 0000 0000 		.long	.LFB8
 714 006c 2600 0000 		.long	.LFE8-.LFB8
 715               		.p2align	2
 716               	.LEFDE10:
 717               	.LSFDE12:
 718 0070 0C00 0000 		.long	.LEFDE12-.LASFDE12
 719               	.LASFDE12:
 720 0074 0000 0000 		.long	.Lframe0
 721 0078 0000 0000 		.long	.LFB3
 722 007c 5C00 0000 		.long	.LFE3-.LFB3
 723               		.p2align	2
 724               	.LEFDE12:
 725               	.LSFDE14:
 726 0080 0C00 0000 		.long	.LEFDE14-.LASFDE14
 727               	.LASFDE14:
 728 0084 0000 0000 		.long	.Lframe0
 729 0088 0000 0000 		.long	.LFB9
 730 008c 3C00 0000 		.long	.LFE9-.LFB9
 731               		.p2align	2
 732               	.LEFDE14:
 733               	.LSFDE16:
 734 0090 0C00 0000 		.long	.LEFDE16-.LASFDE16
 735               	.LASFDE16:
 736 0094 0000 0000 		.long	.Lframe0
 737 0098 0000 0000 		.long	.LFB10
 738 009c 4400 0000 		.long	.LFE10-.LFB10
 739               		.p2align	2
 740               	.LEFDE16:
 741               	.LSFDE18:
GAS LISTING C:\Users\OSZKR~1\AppData\Local\Temp/ccSXhMDa.s 			page 14


 742 00a0 0C00 0000 		.long	.LEFDE18-.LASFDE18
 743               	.LASFDE18:
 744 00a4 0000 0000 		.long	.Lframe0
 745 00a8 0000 0000 		.long	.LFB11
 746 00ac 1C00 0000 		.long	.LFE11-.LFB11
 747               		.p2align	2
 748               	.LEFDE18:
 749               	.LSFDE20:
 750 00b0 0C00 0000 		.long	.LEFDE20-.LASFDE20
 751               	.LASFDE20:
 752 00b4 0000 0000 		.long	.Lframe0
 753 00b8 0000 0000 		.long	.LFB12
 754 00bc 5200 0000 		.long	.LFE12-.LFB12
 755               		.p2align	2
 756               	.LEFDE20:
 757               	.LSFDE22:
 758 00c0 0C00 0000 		.long	.LEFDE22-.LASFDE22
 759               	.LASFDE22:
 760 00c4 0000 0000 		.long	.Lframe0
 761 00c8 0000 0000 		.long	.LFB13
 762 00cc 6400 0000 		.long	.LFE13-.LFB13
 763               		.p2align	2
 764               	.LEFDE22:
 765               	.LSFDE24:
 766 00d0 0C00 0000 		.long	.LEFDE24-.LASFDE24
 767               	.LASFDE24:
 768 00d4 0000 0000 		.long	.Lframe0
 769 00d8 0000 0000 		.long	.LFB14
 770 00dc 1200 0000 		.long	.LFE14-.LFB14
 771               		.p2align	2
 772               	.LEFDE24:
 773               	.LSFDE26:
 774 00e0 0C00 0000 		.long	.LEFDE26-.LASFDE26
 775               	.LASFDE26:
 776 00e4 0000 0000 		.long	.Lframe0
 777 00e8 0000 0000 		.long	.LFB15
 778 00ec 0800 0000 		.long	.LFE15-.LFB15
 779               		.p2align	2
 780               	.LEFDE26:
 781               	.LSFDE28:
 782 00f0 0C00 0000 		.long	.LEFDE28-.LASFDE28
 783               	.LASFDE28:
 784 00f4 0000 0000 		.long	.Lframe0
 785 00f8 0000 0000 		.long	.LFB16
 786 00fc 1000 0000 		.long	.LFE16-.LFB16
 787               		.p2align	2
 788               	.LEFDE28:
 789               		.text
 790               	.Letext0:
 791               		.section	.debug_loc,"",@progbits
 792               	.Ldebug_loc0:
 793               	.LLST2:
 794 0000 2200 0000 		.long	.LVL0-.Ltext0
 795 0004 2800 0000 		.long	.LVL1-.Ltext0
 796 0008 0100      		.word	0x1
 797 000a 68        		.byte	0x68
 798 000b 0000 0000 		.long	0x0
GAS LISTING C:\Users\OSZKR~1\AppData\Local\Temp/ccSXhMDa.s 			page 15


 799 000f 0000 0000 		.long	0x0
 800               	.LLST3:
 801 0013 2200 0000 		.long	.LVL0-.Ltext0
 802 0017 2E00 0000 		.long	.LVL2-.Ltext0
 803 001b 0100      		.word	0x1
 804 001d 66        		.byte	0x66
 805 001e 0000 0000 		.long	0x0
 806 0022 0000 0000 		.long	0x0
 807               	.LLST5:
 808 0026 3000 0000 		.long	.LVL3-.Ltext0
 809 002a 3A00 0000 		.long	.LVL4-.Ltext0
 810 002e 0100      		.word	0x1
 811 0030 68        		.byte	0x68
 812 0031 0000 0000 		.long	0x0
 813 0035 0000 0000 		.long	0x0
 814               	.LLST8:
 815 0039 6800 0000 		.long	.LVL6-.Ltext0
 816 003d 6C00 0000 		.long	.LVL7-.Ltext0
 817 0041 0100      		.word	0x1
 818 0043 68        		.byte	0x68
 819 0044 0000 0000 		.long	0x0
 820 0048 0000 0000 		.long	0x0
 821               	.LLST10:
 822 004c 7A00 0000 		.long	.LVL8-.Ltext0
 823 0050 8800 0000 		.long	.LVL9-.Ltext0
 824 0054 0100      		.word	0x1
 825 0056 68        		.byte	0x68
 826 0057 8800 0000 		.long	.LVL9-.Ltext0
 827 005b A000 0000 		.long	.LFE8-.Ltext0
 828 005f 0100      		.word	0x1
 829 0061 69        		.byte	0x69
 830 0062 0000 0000 		.long	0x0
 831 0066 0000 0000 		.long	0x0
 832               	.LLST13:
 833 006a FC00 0000 		.long	.LVL11-.Ltext0
 834 006e 0001 0000 		.long	.LVL12-.Ltext0
 835 0072 0600      		.word	0x6
 836 0074 68        		.byte	0x68
 837 0075 93        		.byte	0x93
 838 0076 01        		.uleb128 0x1
 839 0077 69        		.byte	0x69
 840 0078 93        		.byte	0x93
 841 0079 01        		.uleb128 0x1
 842 007a 0001 0000 		.long	.LVL12-.Ltext0
 843 007e 3801 0000 		.long	.LFE9-.Ltext0
 844 0082 0600      		.word	0x6
 845 0084 6E        		.byte	0x6e
 846 0085 93        		.byte	0x93
 847 0086 01        		.uleb128 0x1
 848 0087 6F        		.byte	0x6f
 849 0088 93        		.byte	0x93
 850 0089 01        		.uleb128 0x1
 851 008a 0000 0000 		.long	0x0
 852 008e 0000 0000 		.long	0x0
 853               	.LLST15:
 854 0092 3801 0000 		.long	.LVL13-.Ltext0
 855 0096 3C01 0000 		.long	.LVL14-.Ltext0
GAS LISTING C:\Users\OSZKR~1\AppData\Local\Temp/ccSXhMDa.s 			page 16


 856 009a 0600      		.word	0x6
 857 009c 68        		.byte	0x68
 858 009d 93        		.byte	0x93
 859 009e 01        		.uleb128 0x1
 860 009f 69        		.byte	0x69
 861 00a0 93        		.byte	0x93
 862 00a1 01        		.uleb128 0x1
 863 00a2 3C01 0000 		.long	.LVL14-.Ltext0
 864 00a6 7C01 0000 		.long	.LFE10-.Ltext0
 865 00aa 0600      		.word	0x6
 866 00ac 6E        		.byte	0x6e
 867 00ad 93        		.byte	0x93
 868 00ae 01        		.uleb128 0x1
 869 00af 6F        		.byte	0x6f
 870 00b0 93        		.byte	0x93
 871 00b1 01        		.uleb128 0x1
 872 00b2 0000 0000 		.long	0x0
 873 00b6 0000 0000 		.long	0x0
 874               	.LLST17:
 875 00ba 7C01 0000 		.long	.LVL15-.Ltext0
 876 00be 8201 0000 		.long	.LVL16-.Ltext0
 877 00c2 0600      		.word	0x6
 878 00c4 68        		.byte	0x68
 879 00c5 93        		.byte	0x93
 880 00c6 01        		.uleb128 0x1
 881 00c7 69        		.byte	0x69
 882 00c8 93        		.byte	0x93
 883 00c9 01        		.uleb128 0x1
 884 00ca 0000 0000 		.long	0x0
 885 00ce 0000 0000 		.long	0x0
 886               	.LLST19:
 887 00d2 9801 0000 		.long	.LVL18-.Ltext0
 888 00d6 9C01 0000 		.long	.LVL19-.Ltext0
 889 00da 0600      		.word	0x6
 890 00dc 68        		.byte	0x68
 891 00dd 93        		.byte	0x93
 892 00de 01        		.uleb128 0x1
 893 00df 69        		.byte	0x69
 894 00e0 93        		.byte	0x93
 895 00e1 01        		.uleb128 0x1
 896 00e2 9C01 0000 		.long	.LVL19-.Ltext0
 897 00e6 E201 0000 		.long	.LVL25-.Ltext0
 898 00ea 0600      		.word	0x6
 899 00ec 6E        		.byte	0x6e
 900 00ed 93        		.byte	0x93
 901 00ee 01        		.uleb128 0x1
 902 00ef 6F        		.byte	0x6f
 903 00f0 93        		.byte	0x93
 904 00f1 01        		.uleb128 0x1
 905 00f2 E401 0000 		.long	.LVL26-.Ltext0
 906 00f6 EA01 0000 		.long	.LFE12-.Ltext0
 907 00fa 0600      		.word	0x6
 908 00fc 6E        		.byte	0x6e
 909 00fd 93        		.byte	0x93
 910 00fe 01        		.uleb128 0x1
 911 00ff 6F        		.byte	0x6f
 912 0100 93        		.byte	0x93
GAS LISTING C:\Users\OSZKR~1\AppData\Local\Temp/ccSXhMDa.s 			page 17


 913 0101 01        		.uleb128 0x1
 914 0102 0000 0000 		.long	0x0
 915 0106 0000 0000 		.long	0x0
 916               	.LLST20:
 917 010a A601 0000 		.long	.LVL20-.Ltext0
 918 010e A801 0000 		.long	.LVL21-.Ltext0
 919 0112 0100      		.word	0x1
 920 0114 69        		.byte	0x69
 921 0115 AC01 0000 		.long	.LVL22-.Ltext0
 922 0119 DA01 0000 		.long	.LVL24-.Ltext0
 923 011d 0100      		.word	0x1
 924 011f 67        		.byte	0x67
 925 0120 DA01 0000 		.long	.LVL24-.Ltext0
 926 0124 E801 0000 		.long	.LVL27-.Ltext0
 927 0128 0100      		.word	0x1
 928 012a 69        		.byte	0x69
 929 012b E801 0000 		.long	.LVL27-.Ltext0
 930 012f EA01 0000 		.long	.LFE12-.Ltext0
 931 0133 0100      		.word	0x1
 932 0135 67        		.byte	0x67
 933 0136 0000 0000 		.long	0x0
 934 013a 0000 0000 		.long	0x0
 935               	.LLST21:
 936 013e AE01 0000 		.long	.LVL23-.Ltext0
 937 0142 DA01 0000 		.long	.LVL24-.Ltext0
 938 0146 0600      		.word	0x6
 939 0148 62        		.byte	0x62
 940 0149 93        		.byte	0x93
 941 014a 01        		.uleb128 0x1
 942 014b 63        		.byte	0x63
 943 014c 93        		.byte	0x93
 944 014d 01        		.uleb128 0x1
 945 014e E801 0000 		.long	.LVL27-.Ltext0
 946 0152 EA01 0000 		.long	.LFE12-.Ltext0
 947 0156 0600      		.word	0x6
 948 0158 62        		.byte	0x62
 949 0159 93        		.byte	0x93
 950 015a 01        		.uleb128 0x1
 951 015b 63        		.byte	0x63
 952 015c 93        		.byte	0x93
 953 015d 01        		.uleb128 0x1
 954 015e 0000 0000 		.long	0x0
 955 0162 0000 0000 		.long	0x0
 956               	.LLST26:
 957 0166 6802 0000 		.long	.LVL28-.Ltext0
 958 016a 6E02 0000 		.long	.LVL29-.Ltext0
 959 016e 0100      		.word	0x1
 960 0170 68        		.byte	0x68
 961 0171 6E02 0000 		.long	.LVL29-.Ltext0
 962 0175 7802 0000 		.long	.LFE16-.Ltext0
 963 0179 0100      		.word	0x1
 964 017b 69        		.byte	0x69
 965 017c 0000 0000 		.long	0x0
 966 0180 0000 0000 		.long	0x0
 967               		.section	.debug_info
 968 0000 AA03 0000 		.long	0x3aa
 969 0004 0200      		.word	0x2
GAS LISTING C:\Users\OSZKR~1\AppData\Local\Temp/ccSXhMDa.s 			page 18


 970 0006 0000 0000 		.long	.Ldebug_abbrev0
 971 000a 04        		.byte	0x4
 972 000b 01        		.uleb128 0x1
 973 000c 0000 0000 		.long	.LASF34
 974 0010 01        		.byte	0x1
 975 0011 0000 0000 		.long	.LASF35
 976 0015 0000 0000 		.long	.LASF36
 977 0019 0000 0000 		.long	.Ltext0
 978 001d 0000 0000 		.long	.Letext0
 979 0021 0000 0000 		.long	.Ldebug_line0
 980 0025 02        		.uleb128 0x2
 981 0026 01        		.byte	0x1
 982 0027 06        		.byte	0x6
 983 0028 0000 0000 		.long	.LASF0
 984 002c 02        		.uleb128 0x2
 985 002d 01        		.byte	0x1
 986 002e 08        		.byte	0x8
 987 002f 0000 0000 		.long	.LASF1
 988 0033 03        		.uleb128 0x3
 989 0034 02        		.byte	0x2
 990 0035 05        		.byte	0x5
 991 0036 696E 7400 		.string	"int"
 992 003a 02        		.uleb128 0x2
 993 003b 02        		.byte	0x2
 994 003c 07        		.byte	0x7
 995 003d 0000 0000 		.long	.LASF2
 996 0041 02        		.uleb128 0x2
 997 0042 04        		.byte	0x4
 998 0043 05        		.byte	0x5
 999 0044 0000 0000 		.long	.LASF3
 1000 0048 02        		.uleb128 0x2
 1001 0049 04        		.byte	0x4
 1002 004a 07        		.byte	0x7
 1003 004b 0000 0000 		.long	.LASF4
 1004 004f 02        		.uleb128 0x2
 1005 0050 08        		.byte	0x8
 1006 0051 05        		.byte	0x5
 1007 0052 0000 0000 		.long	.LASF5
 1008 0056 02        		.uleb128 0x2
 1009 0057 08        		.byte	0x8
 1010 0058 07        		.byte	0x7
 1011 0059 0000 0000 		.long	.LASF6
 1012 005d 04        		.uleb128 0x4
 1013 005e 01        		.byte	0x1
 1014 005f 0000 0000 		.long	.LASF7
 1015 0063 01        		.byte	0x1
 1016 0064 6A        		.byte	0x6a
 1017 0065 01        		.byte	0x1
 1018 0066 03        		.byte	0x3
 1019 0067 7700 0000 		.long	0x77
 1020 006b 05        		.uleb128 0x5
 1021 006c 0000 0000 		.long	.LASF9
 1022 0070 01        		.byte	0x1
 1023 0071 69        		.byte	0x69
 1024 0072 2C00 0000 		.long	0x2c
 1025 0076 00        		.byte	0x0
 1026 0077 04        		.uleb128 0x4
GAS LISTING C:\Users\OSZKR~1\AppData\Local\Temp/ccSXhMDa.s 			page 19


 1027 0078 01        		.byte	0x1
 1028 0079 0000 0000 		.long	.LASF8
 1029 007d 01        		.byte	0x1
 1030 007e 56        		.byte	0x56
 1031 007f 01        		.byte	0x1
 1032 0080 03        		.byte	0x3
 1033 0081 9C00 0000 		.long	0x9c
 1034 0085 05        		.uleb128 0x5
 1035 0086 0000 0000 		.long	.LASF10
 1036 008a 01        		.byte	0x1
 1037 008b 55        		.byte	0x55
 1038 008c 2C00 0000 		.long	0x2c
 1039 0090 05        		.uleb128 0x5
 1040 0091 0000 0000 		.long	.LASF11
 1041 0095 01        		.byte	0x1
 1042 0096 55        		.byte	0x55
 1043 0097 2C00 0000 		.long	0x2c
 1044 009b 00        		.byte	0x0
 1045 009c 04        		.uleb128 0x4
 1046 009d 01        		.byte	0x1
 1047 009e 0000 0000 		.long	.LASF12
 1048 00a2 01        		.byte	0x1
 1049 00a3 4F        		.byte	0x4f
 1050 00a4 01        		.byte	0x1
 1051 00a5 03        		.byte	0x3
 1052 00a6 C100 0000 		.long	0xc1
 1053 00aa 05        		.uleb128 0x5
 1054 00ab 0000 0000 		.long	.LASF13
 1055 00af 01        		.byte	0x1
 1056 00b0 4E        		.byte	0x4e
 1057 00b1 2C00 0000 		.long	0x2c
 1058 00b5 05        		.uleb128 0x5
 1059 00b6 0000 0000 		.long	.LASF14
 1060 00ba 01        		.byte	0x1
 1061 00bb 4E        		.byte	0x4e
 1062 00bc 2C00 0000 		.long	0x2c
 1063 00c0 00        		.byte	0x0
 1064 00c1 04        		.uleb128 0x4
 1065 00c2 01        		.byte	0x1
 1066 00c3 0000 0000 		.long	.LASF15
 1067 00c7 01        		.byte	0x1
 1068 00c8 EB        		.byte	0xeb
 1069 00c9 01        		.byte	0x1
 1070 00ca 01        		.byte	0x1
 1071 00cb DB00 0000 		.long	0xdb
 1072 00cf 05        		.uleb128 0x5
 1073 00d0 0000 0000 		.long	.LASF16
 1074 00d4 01        		.byte	0x1
 1075 00d5 EA        		.byte	0xea
 1076 00d6 2C00 0000 		.long	0x2c
 1077 00da 00        		.byte	0x0
 1078 00db 06        		.uleb128 0x6
 1079 00dc 01        		.byte	0x1
 1080 00dd 0000 0000 		.long	.LASF31
 1081 00e1 01        		.byte	0x1
 1082 00e2 23        		.byte	0x23
 1083 00e3 01        		.byte	0x1
GAS LISTING C:\Users\OSZKR~1\AppData\Local\Temp/ccSXhMDa.s 			page 20


 1084 00e4 0000 0000 		.long	.LFB2
 1085 00e8 0000 0000 		.long	.LFE2
 1086 00ec 02        		.byte	0x2
 1087 00ed 90        		.byte	0x90
 1088 00ee 20        		.uleb128 0x20
 1089 00ef 07        		.uleb128 0x7
 1090 00f0 9C00 0000 		.long	0x9c
 1091 00f4 0000 0000 		.long	.LFB4
 1092 00f8 0000 0000 		.long	.LFE4
 1093 00fc 02        		.byte	0x2
 1094 00fd 90        		.byte	0x90
 1095 00fe 20        		.uleb128 0x20
 1096 00ff 1601 0000 		.long	0x116
 1097 0103 08        		.uleb128 0x8
 1098 0104 AA00 0000 		.long	0xaa
 1099 0108 0000 0000 		.long	.LLST2
 1100 010c 08        		.uleb128 0x8
 1101 010d B500 0000 		.long	0xb5
 1102 0111 0000 0000 		.long	.LLST3
 1103 0115 00        		.byte	0x0
 1104 0116 07        		.uleb128 0x7
 1105 0117 7700 0000 		.long	0x77
 1106 011b 0000 0000 		.long	.LFB5
 1107 011f 0000 0000 		.long	.LFE5
 1108 0123 02        		.byte	0x2
 1109 0124 90        		.byte	0x90
 1110 0125 20        		.uleb128 0x20
 1111 0126 3B01 0000 		.long	0x13b
 1112 012a 08        		.uleb128 0x8
 1113 012b 8500 0000 		.long	0x85
 1114 012f 0000 0000 		.long	.LLST5
 1115 0133 09        		.uleb128 0x9
 1116 0134 9000 0000 		.long	0x90
 1117 0138 01        		.byte	0x1
 1118 0139 66        		.byte	0x66
 1119 013a 00        		.byte	0x0
 1120 013b 0A        		.uleb128 0xa
 1121 013c 01        		.byte	0x1
 1122 013d 0000 0000 		.long	.LASF17
 1123 0141 01        		.byte	0x1
 1124 0142 5F        		.byte	0x5f
 1125 0143 01        		.byte	0x1
 1126 0144 0000 0000 		.long	.LFB6
 1127 0148 0000 0000 		.long	.LFE6
 1128 014c 02        		.byte	0x2
 1129 014d 90        		.byte	0x90
 1130 014e 20        		.uleb128 0x20
 1131 014f 6101 0000 		.long	0x161
 1132 0153 0B        		.uleb128 0xb
 1133 0154 0000 0000 		.long	.LASF19
 1134 0158 01        		.byte	0x1
 1135 0159 5E        		.byte	0x5e
 1136 015a 2C00 0000 		.long	0x2c
 1137 015e 01        		.byte	0x1
 1138 015f 68        		.byte	0x68
 1139 0160 00        		.byte	0x0
 1140 0161 07        		.uleb128 0x7
GAS LISTING C:\Users\OSZKR~1\AppData\Local\Temp/ccSXhMDa.s 			page 21


 1141 0162 5D00 0000 		.long	0x5d
 1142 0166 0000 0000 		.long	.LFB7
 1143 016a 0000 0000 		.long	.LFE7
 1144 016e 02        		.byte	0x2
 1145 016f 90        		.byte	0x90
 1146 0170 20        		.uleb128 0x20
 1147 0171 7F01 0000 		.long	0x17f
 1148 0175 08        		.uleb128 0x8
 1149 0176 6B00 0000 		.long	0x6b
 1150 017a 0000 0000 		.long	.LLST8
 1151 017e 00        		.byte	0x0
 1152 017f 0A        		.uleb128 0xa
 1153 0180 01        		.byte	0x1
 1154 0181 0000 0000 		.long	.LASF18
 1155 0185 01        		.byte	0x1
 1156 0186 72        		.byte	0x72
 1157 0187 01        		.byte	0x1
 1158 0188 0000 0000 		.long	.LFB8
 1159 018c 0000 0000 		.long	.LFE8
 1160 0190 02        		.byte	0x2
 1161 0191 90        		.byte	0x90
 1162 0192 20        		.uleb128 0x20
 1163 0193 B401 0000 		.long	0x1b4
 1164 0197 0C        		.uleb128 0xc
 1165 0198 0000 0000 		.long	.LASF20
 1166 019c 01        		.byte	0x1
 1167 019d 71        		.byte	0x71
 1168 019e 2C00 0000 		.long	0x2c
 1169 01a2 0000 0000 		.long	.LLST10
 1170 01a6 0B        		.uleb128 0xb
 1171 01a7 0000 0000 		.long	.LASF21
 1172 01ab 01        		.byte	0x1
 1173 01ac 71        		.byte	0x71
 1174 01ad 2C00 0000 		.long	0x2c
 1175 01b1 01        		.byte	0x1
 1176 01b2 66        		.byte	0x66
 1177 01b3 00        		.byte	0x0
 1178 01b4 0A        		.uleb128 0xa
 1179 01b5 01        		.byte	0x1
 1180 01b6 0000 0000 		.long	.LASF22
 1181 01ba 01        		.byte	0x1
 1182 01bb 29        		.byte	0x29
 1183 01bc 01        		.byte	0x1
 1184 01bd 0000 0000 		.long	.LFB3
 1185 01c1 0000 0000 		.long	.LFE3
 1186 01c5 02        		.byte	0x2
 1187 01c6 90        		.byte	0x90
 1188 01c7 20        		.uleb128 0x20
 1189 01c8 1E02 0000 		.long	0x21e
 1190 01cc 0D        		.uleb128 0xd
 1191 01cd 5D00 0000 		.long	0x5d
 1192 01d1 0000 0000 		.long	.LBB10
 1193 01d5 0000 0000 		.long	.LBE10
 1194 01d9 01        		.byte	0x1
 1195 01da 43        		.byte	0x43
 1196 01db E501 0000 		.long	0x1e5
 1197 01df 0E        		.uleb128 0xe
GAS LISTING C:\Users\OSZKR~1\AppData\Local\Temp/ccSXhMDa.s 			page 22


 1198 01e0 7501 0000 		.long	0x175
 1199 01e4 00        		.byte	0x0
 1200 01e5 0D        		.uleb128 0xd
 1201 01e6 7700 0000 		.long	0x77
 1202 01ea 0000 0000 		.long	.LBB12
 1203 01ee 0000 0000 		.long	.LBE12
 1204 01f2 01        		.byte	0x1
 1205 01f3 48        		.byte	0x48
 1206 01f4 0302 0000 		.long	0x203
 1207 01f8 0E        		.uleb128 0xe
 1208 01f9 3301 0000 		.long	0x133
 1209 01fd 0E        		.uleb128 0xe
 1210 01fe 2A01 0000 		.long	0x12a
 1211 0202 00        		.byte	0x0
 1212 0203 0F        		.uleb128 0xf
 1213 0204 9C00 0000 		.long	0x9c
 1214 0208 0000 0000 		.long	.LBB14
 1215 020c 0000 0000 		.long	.LBE14
 1216 0210 01        		.byte	0x1
 1217 0211 49        		.byte	0x49
 1218 0212 0E        		.uleb128 0xe
 1219 0213 0C01 0000 		.long	0x10c
 1220 0217 0E        		.uleb128 0xe
 1221 0218 0301 0000 		.long	0x103
 1222 021c 00        		.byte	0x0
 1223 021d 00        		.byte	0x0
 1224 021e 0A        		.uleb128 0xa
 1225 021f 01        		.byte	0x1
 1226 0220 0000 0000 		.long	.LASF23
 1227 0224 01        		.byte	0x1
 1228 0225 7E        		.byte	0x7e
 1229 0226 01        		.byte	0x1
 1230 0227 0000 0000 		.long	.LFB9
 1231 022b 0000 0000 		.long	.LFE9
 1232 022f 02        		.byte	0x2
 1233 0230 90        		.byte	0x90
 1234 0231 20        		.uleb128 0x20
 1235 0232 4602 0000 		.long	0x246
 1236 0236 0C        		.uleb128 0xc
 1237 0237 0000 0000 		.long	.LASF24
 1238 023b 01        		.byte	0x1
 1239 023c 7D        		.byte	0x7d
 1240 023d 4602 0000 		.long	0x246
 1241 0241 0000 0000 		.long	.LLST13
 1242 0245 00        		.byte	0x0
 1243 0246 10        		.uleb128 0x10
 1244 0247 02        		.byte	0x2
 1245 0248 3A00 0000 		.long	0x3a
 1246 024c 0A        		.uleb128 0xa
 1247 024d 01        		.byte	0x1
 1248 024e 0000 0000 		.long	.LASF25
 1249 0252 01        		.byte	0x1
 1250 0253 8E        		.byte	0x8e
 1251 0254 01        		.byte	0x1
 1252 0255 0000 0000 		.long	.LFB10
 1253 0259 0000 0000 		.long	.LFE10
 1254 025d 02        		.byte	0x2
GAS LISTING C:\Users\OSZKR~1\AppData\Local\Temp/ccSXhMDa.s 			page 23


 1255 025e 90        		.byte	0x90
 1256 025f 20        		.uleb128 0x20
 1257 0260 7402 0000 		.long	0x274
 1258 0264 0C        		.uleb128 0xc
 1259 0265 0000 0000 		.long	.LASF24
 1260 0269 01        		.byte	0x1
 1261 026a 8D        		.byte	0x8d
 1262 026b 4602 0000 		.long	0x246
 1263 026f 0000 0000 		.long	.LLST15
 1264 0273 00        		.byte	0x0
 1265 0274 0A        		.uleb128 0xa
 1266 0275 01        		.byte	0x1
 1267 0276 0000 0000 		.long	.LASF26
 1268 027a 01        		.byte	0x1
 1269 027b A1        		.byte	0xa1
 1270 027c 01        		.byte	0x1
 1271 027d 0000 0000 		.long	.LFB11
 1272 0281 0000 0000 		.long	.LFE11
 1273 0285 02        		.byte	0x2
 1274 0286 90        		.byte	0x90
 1275 0287 20        		.uleb128 0x20
 1276 0288 B202 0000 		.long	0x2b2
 1277 028c 0C        		.uleb128 0xc
 1278 028d 0000 0000 		.long	.LASF24
 1279 0291 01        		.byte	0x1
 1280 0292 A0        		.byte	0xa0
 1281 0293 B202 0000 		.long	0x2b2
 1282 0297 0000 0000 		.long	.LLST17
 1283 029b 0B        		.uleb128 0xb
 1284 029c 0000 0000 		.long	.LASF27
 1285 02a0 01        		.byte	0x1
 1286 02a1 A0        		.byte	0xa0
 1287 02a2 2C00 0000 		.long	0x2c
 1288 02a6 01        		.byte	0x1
 1289 02a7 66        		.byte	0x66
 1290 02a8 11        		.uleb128 0x11
 1291 02a9 6900      		.string	"i"
 1292 02ab 01        		.byte	0x1
 1293 02ac A2        		.byte	0xa2
 1294 02ad 2C00 0000 		.long	0x2c
 1295 02b1 00        		.byte	0x0
 1296 02b2 10        		.uleb128 0x10
 1297 02b3 02        		.byte	0x2
 1298 02b4 2C00 0000 		.long	0x2c
 1299 02b8 0A        		.uleb128 0xa
 1300 02b9 01        		.byte	0x1
 1301 02ba 0000 0000 		.long	.LASF28
 1302 02be 01        		.byte	0x1
 1303 02bf B0        		.byte	0xb0
 1304 02c0 01        		.byte	0x1
 1305 02c1 0000 0000 		.long	.LFB12
 1306 02c5 0000 0000 		.long	.LFE12
 1307 02c9 02        		.byte	0x2
 1308 02ca 90        		.byte	0x90
 1309 02cb 20        		.uleb128 0x20
 1310 02cc 1B03 0000 		.long	0x31b
 1311 02d0 0C        		.uleb128 0xc
GAS LISTING C:\Users\OSZKR~1\AppData\Local\Temp/ccSXhMDa.s 			page 24


 1312 02d1 0000 0000 		.long	.LASF24
 1313 02d5 01        		.byte	0x1
 1314 02d6 AF        		.byte	0xaf
 1315 02d7 B202 0000 		.long	0x2b2
 1316 02db 0000 0000 		.long	.LLST19
 1317 02df 0B        		.uleb128 0xb
 1318 02e0 0000 0000 		.long	.LASF27
 1319 02e4 01        		.byte	0x1
 1320 02e5 AF        		.byte	0xaf
 1321 02e6 2C00 0000 		.long	0x2c
 1322 02ea 01        		.byte	0x1
 1323 02eb 66        		.byte	0x66
 1324 02ec 0B        		.uleb128 0xb
 1325 02ed 0000 0000 		.long	.LASF29
 1326 02f1 01        		.byte	0x1
 1327 02f2 AF        		.byte	0xaf
 1328 02f3 3A00 0000 		.long	0x3a
 1329 02f7 06        		.byte	0x6
 1330 02f8 64        		.byte	0x64
 1331 02f9 93        		.byte	0x93
 1332 02fa 01        		.uleb128 0x1
 1333 02fb 65        		.byte	0x65
 1334 02fc 93        		.byte	0x93
 1335 02fd 01        		.uleb128 0x1
 1336 02fe 12        		.uleb128 0x12
 1337 02ff 6900      		.string	"i"
 1338 0301 01        		.byte	0x1
 1339 0302 B1        		.byte	0xb1
 1340 0303 2C00 0000 		.long	0x2c
 1341 0307 0000 0000 		.long	.LLST20
 1342 030b 13        		.uleb128 0x13
 1343 030c 0000 0000 		.long	.LASF30
 1344 0310 01        		.byte	0x1
 1345 0311 B2        		.byte	0xb2
 1346 0312 3A00 0000 		.long	0x3a
 1347 0316 0000 0000 		.long	.LLST21
 1348 031a 00        		.byte	0x0
 1349 031b 14        		.uleb128 0x14
 1350 031c 01        		.byte	0x1
 1351 031d 0000 0000 		.long	.LASF37
 1352 0321 01        		.byte	0x1
 1353 0322 C9        		.byte	0xc9
 1354 0323 01        		.byte	0x1
 1355 0324 2C00 0000 		.long	0x2c
 1356 0328 0000 0000 		.long	.LFB13
 1357 032c 0000 0000 		.long	.LFE13
 1358 0330 02        		.byte	0x2
 1359 0331 90        		.byte	0x90
 1360 0332 20        		.uleb128 0x20
 1361 0333 5003 0000 		.long	0x350
 1362 0337 11        		.uleb128 0x11
 1363 0338 6900      		.string	"i"
 1364 033a 01        		.byte	0x1
 1365 033b CA        		.byte	0xca
 1366 033c 3A00 0000 		.long	0x3a
 1367 0340 15        		.uleb128 0x15
 1368 0341 C100 0000 		.long	0xc1
GAS LISTING C:\Users\OSZKR~1\AppData\Local\Temp/ccSXhMDa.s 			page 25


 1369 0345 0000 0000 		.long	.LBB16
 1370 0349 0000 0000 		.long	.LBE16
 1371 034d 01        		.byte	0x1
 1372 034e CF        		.byte	0xcf
 1373 034f 00        		.byte	0x0
 1374 0350 06        		.uleb128 0x6
 1375 0351 01        		.byte	0x1
 1376 0352 0000 0000 		.long	.LASF32
 1377 0356 01        		.byte	0x1
 1378 0357 DD        		.byte	0xdd
 1379 0358 01        		.byte	0x1
 1380 0359 0000 0000 		.long	.LFB14
 1381 035d 0000 0000 		.long	.LFE14
 1382 0361 02        		.byte	0x2
 1383 0362 90        		.byte	0x90
 1384 0363 20        		.uleb128 0x20
 1385 0364 06        		.uleb128 0x6
 1386 0365 01        		.byte	0x1
 1387 0366 0000 0000 		.long	.LASF33
 1388 036a 01        		.byte	0x1
 1389 036b E5        		.byte	0xe5
 1390 036c 01        		.byte	0x1
 1391 036d 0000 0000 		.long	.LFB15
 1392 0371 0000 0000 		.long	.LFE15
 1393 0375 02        		.byte	0x2
 1394 0376 90        		.byte	0x90
 1395 0377 20        		.uleb128 0x20
 1396 0378 07        		.uleb128 0x7
 1397 0379 C100 0000 		.long	0xc1
 1398 037d 0000 0000 		.long	.LFB16
 1399 0381 0000 0000 		.long	.LFE16
 1400 0385 02        		.byte	0x2
 1401 0386 90        		.byte	0x90
 1402 0387 20        		.uleb128 0x20
 1403 0388 9603 0000 		.long	0x396
 1404 038c 08        		.uleb128 0x8
 1405 038d CF00 0000 		.long	0xcf
 1406 0391 0000 0000 		.long	.LLST26
 1407 0395 00        		.byte	0x0
 1408 0396 16        		.uleb128 0x16
 1409 0397 0000 0000 		.long	.LASF38
 1410 039b 01        		.byte	0x1
 1411 039c 1E        		.byte	0x1e
 1412 039d A803 0000 		.long	0x3a8
 1413 03a1 01        		.byte	0x1
 1414 03a2 05        		.byte	0x5
 1415 03a3 03        		.byte	0x3
 1416 03a4 0000 0000 		.long	count72kHz
 1417 03a8 17        		.uleb128 0x17
 1418 03a9 2C00 0000 		.long	0x2c
 1419 03ad 00        		.byte	0x0
 1420               		.section	.debug_abbrev
 1421 0000 01        		.uleb128 0x1
 1422 0001 11        		.uleb128 0x11
 1423 0002 01        		.byte	0x1
 1424 0003 25        		.uleb128 0x25
 1425 0004 0E        		.uleb128 0xe
GAS LISTING C:\Users\OSZKR~1\AppData\Local\Temp/ccSXhMDa.s 			page 26


 1426 0005 13        		.uleb128 0x13
 1427 0006 0B        		.uleb128 0xb
 1428 0007 03        		.uleb128 0x3
 1429 0008 0E        		.uleb128 0xe
 1430 0009 1B        		.uleb128 0x1b
 1431 000a 0E        		.uleb128 0xe
 1432 000b 11        		.uleb128 0x11
 1433 000c 01        		.uleb128 0x1
 1434 000d 12        		.uleb128 0x12
 1435 000e 01        		.uleb128 0x1
 1436 000f 10        		.uleb128 0x10
 1437 0010 06        		.uleb128 0x6
 1438 0011 00        		.byte	0x0
 1439 0012 00        		.byte	0x0
 1440 0013 02        		.uleb128 0x2
 1441 0014 24        		.uleb128 0x24
 1442 0015 00        		.byte	0x0
 1443 0016 0B        		.uleb128 0xb
 1444 0017 0B        		.uleb128 0xb
 1445 0018 3E        		.uleb128 0x3e
 1446 0019 0B        		.uleb128 0xb
 1447 001a 03        		.uleb128 0x3
 1448 001b 0E        		.uleb128 0xe
 1449 001c 00        		.byte	0x0
 1450 001d 00        		.byte	0x0
 1451 001e 03        		.uleb128 0x3
 1452 001f 24        		.uleb128 0x24
 1453 0020 00        		.byte	0x0
 1454 0021 0B        		.uleb128 0xb
 1455 0022 0B        		.uleb128 0xb
 1456 0023 3E        		.uleb128 0x3e
 1457 0024 0B        		.uleb128 0xb
 1458 0025 03        		.uleb128 0x3
 1459 0026 08        		.uleb128 0x8
 1460 0027 00        		.byte	0x0
 1461 0028 00        		.byte	0x0
 1462 0029 04        		.uleb128 0x4
 1463 002a 2E        		.uleb128 0x2e
 1464 002b 01        		.byte	0x1
 1465 002c 3F        		.uleb128 0x3f
 1466 002d 0C        		.uleb128 0xc
 1467 002e 03        		.uleb128 0x3
 1468 002f 0E        		.uleb128 0xe
 1469 0030 3A        		.uleb128 0x3a
 1470 0031 0B        		.uleb128 0xb
 1471 0032 3B        		.uleb128 0x3b
 1472 0033 0B        		.uleb128 0xb
 1473 0034 27        		.uleb128 0x27
 1474 0035 0C        		.uleb128 0xc
 1475 0036 20        		.uleb128 0x20
 1476 0037 0B        		.uleb128 0xb
 1477 0038 01        		.uleb128 0x1
 1478 0039 13        		.uleb128 0x13
 1479 003a 00        		.byte	0x0
 1480 003b 00        		.byte	0x0
 1481 003c 05        		.uleb128 0x5
 1482 003d 05        		.uleb128 0x5
GAS LISTING C:\Users\OSZKR~1\AppData\Local\Temp/ccSXhMDa.s 			page 27


 1483 003e 00        		.byte	0x0
 1484 003f 03        		.uleb128 0x3
 1485 0040 0E        		.uleb128 0xe
 1486 0041 3A        		.uleb128 0x3a
 1487 0042 0B        		.uleb128 0xb
 1488 0043 3B        		.uleb128 0x3b
 1489 0044 0B        		.uleb128 0xb
 1490 0045 49        		.uleb128 0x49
 1491 0046 13        		.uleb128 0x13
 1492 0047 00        		.byte	0x0
 1493 0048 00        		.byte	0x0
 1494 0049 06        		.uleb128 0x6
 1495 004a 2E        		.uleb128 0x2e
 1496 004b 00        		.byte	0x0
 1497 004c 3F        		.uleb128 0x3f
 1498 004d 0C        		.uleb128 0xc
 1499 004e 03        		.uleb128 0x3
 1500 004f 0E        		.uleb128 0xe
 1501 0050 3A        		.uleb128 0x3a
 1502 0051 0B        		.uleb128 0xb
 1503 0052 3B        		.uleb128 0x3b
 1504 0053 0B        		.uleb128 0xb
 1505 0054 27        		.uleb128 0x27
 1506 0055 0C        		.uleb128 0xc
 1507 0056 11        		.uleb128 0x11
 1508 0057 01        		.uleb128 0x1
 1509 0058 12        		.uleb128 0x12
 1510 0059 01        		.uleb128 0x1
 1511 005a 40        		.uleb128 0x40
 1512 005b 0A        		.uleb128 0xa
 1513 005c 00        		.byte	0x0
 1514 005d 00        		.byte	0x0
 1515 005e 07        		.uleb128 0x7
 1516 005f 2E        		.uleb128 0x2e
 1517 0060 01        		.byte	0x1
 1518 0061 31        		.uleb128 0x31
 1519 0062 13        		.uleb128 0x13
 1520 0063 11        		.uleb128 0x11
 1521 0064 01        		.uleb128 0x1
 1522 0065 12        		.uleb128 0x12
 1523 0066 01        		.uleb128 0x1
 1524 0067 40        		.uleb128 0x40
 1525 0068 0A        		.uleb128 0xa
 1526 0069 01        		.uleb128 0x1
 1527 006a 13        		.uleb128 0x13
 1528 006b 00        		.byte	0x0
 1529 006c 00        		.byte	0x0
 1530 006d 08        		.uleb128 0x8
 1531 006e 05        		.uleb128 0x5
 1532 006f 00        		.byte	0x0
 1533 0070 31        		.uleb128 0x31
 1534 0071 13        		.uleb128 0x13
 1535 0072 02        		.uleb128 0x2
 1536 0073 06        		.uleb128 0x6
 1537 0074 00        		.byte	0x0
 1538 0075 00        		.byte	0x0
 1539 0076 09        		.uleb128 0x9
GAS LISTING C:\Users\OSZKR~1\AppData\Local\Temp/ccSXhMDa.s 			page 28


 1540 0077 05        		.uleb128 0x5
 1541 0078 00        		.byte	0x0
 1542 0079 31        		.uleb128 0x31
 1543 007a 13        		.uleb128 0x13
 1544 007b 02        		.uleb128 0x2
 1545 007c 0A        		.uleb128 0xa
 1546 007d 00        		.byte	0x0
 1547 007e 00        		.byte	0x0
 1548 007f 0A        		.uleb128 0xa
 1549 0080 2E        		.uleb128 0x2e
 1550 0081 01        		.byte	0x1
 1551 0082 3F        		.uleb128 0x3f
 1552 0083 0C        		.uleb128 0xc
 1553 0084 03        		.uleb128 0x3
 1554 0085 0E        		.uleb128 0xe
 1555 0086 3A        		.uleb128 0x3a
 1556 0087 0B        		.uleb128 0xb
 1557 0088 3B        		.uleb128 0x3b
 1558 0089 0B        		.uleb128 0xb
 1559 008a 27        		.uleb128 0x27
 1560 008b 0C        		.uleb128 0xc
 1561 008c 11        		.uleb128 0x11
 1562 008d 01        		.uleb128 0x1
 1563 008e 12        		.uleb128 0x12
 1564 008f 01        		.uleb128 0x1
 1565 0090 40        		.uleb128 0x40
 1566 0091 0A        		.uleb128 0xa
 1567 0092 01        		.uleb128 0x1
 1568 0093 13        		.uleb128 0x13
 1569 0094 00        		.byte	0x0
 1570 0095 00        		.byte	0x0
 1571 0096 0B        		.uleb128 0xb
 1572 0097 05        		.uleb128 0x5
 1573 0098 00        		.byte	0x0
 1574 0099 03        		.uleb128 0x3
 1575 009a 0E        		.uleb128 0xe
 1576 009b 3A        		.uleb128 0x3a
 1577 009c 0B        		.uleb128 0xb
 1578 009d 3B        		.uleb128 0x3b
 1579 009e 0B        		.uleb128 0xb
 1580 009f 49        		.uleb128 0x49
 1581 00a0 13        		.uleb128 0x13
 1582 00a1 02        		.uleb128 0x2
 1583 00a2 0A        		.uleb128 0xa
 1584 00a3 00        		.byte	0x0
 1585 00a4 00        		.byte	0x0
 1586 00a5 0C        		.uleb128 0xc
 1587 00a6 05        		.uleb128 0x5
 1588 00a7 00        		.byte	0x0
 1589 00a8 03        		.uleb128 0x3
 1590 00a9 0E        		.uleb128 0xe
 1591 00aa 3A        		.uleb128 0x3a
 1592 00ab 0B        		.uleb128 0xb
 1593 00ac 3B        		.uleb128 0x3b
 1594 00ad 0B        		.uleb128 0xb
 1595 00ae 49        		.uleb128 0x49
 1596 00af 13        		.uleb128 0x13
GAS LISTING C:\Users\OSZKR~1\AppData\Local\Temp/ccSXhMDa.s 			page 29


 1597 00b0 02        		.uleb128 0x2
 1598 00b1 06        		.uleb128 0x6
 1599 00b2 00        		.byte	0x0
 1600 00b3 00        		.byte	0x0
 1601 00b4 0D        		.uleb128 0xd
 1602 00b5 1D        		.uleb128 0x1d
 1603 00b6 01        		.byte	0x1
 1604 00b7 31        		.uleb128 0x31
 1605 00b8 13        		.uleb128 0x13
 1606 00b9 11        		.uleb128 0x11
 1607 00ba 01        		.uleb128 0x1
 1608 00bb 12        		.uleb128 0x12
 1609 00bc 01        		.uleb128 0x1
 1610 00bd 58        		.uleb128 0x58
 1611 00be 0B        		.uleb128 0xb
 1612 00bf 59        		.uleb128 0x59
 1613 00c0 0B        		.uleb128 0xb
 1614 00c1 01        		.uleb128 0x1
 1615 00c2 13        		.uleb128 0x13
 1616 00c3 00        		.byte	0x0
 1617 00c4 00        		.byte	0x0
 1618 00c5 0E        		.uleb128 0xe
 1619 00c6 05        		.uleb128 0x5
 1620 00c7 00        		.byte	0x0
 1621 00c8 31        		.uleb128 0x31
 1622 00c9 13        		.uleb128 0x13
 1623 00ca 00        		.byte	0x0
 1624 00cb 00        		.byte	0x0
 1625 00cc 0F        		.uleb128 0xf
 1626 00cd 1D        		.uleb128 0x1d
 1627 00ce 01        		.byte	0x1
 1628 00cf 31        		.uleb128 0x31
 1629 00d0 13        		.uleb128 0x13
 1630 00d1 11        		.uleb128 0x11
 1631 00d2 01        		.uleb128 0x1
 1632 00d3 12        		.uleb128 0x12
 1633 00d4 01        		.uleb128 0x1
 1634 00d5 58        		.uleb128 0x58
 1635 00d6 0B        		.uleb128 0xb
 1636 00d7 59        		.uleb128 0x59
 1637 00d8 0B        		.uleb128 0xb
 1638 00d9 00        		.byte	0x0
 1639 00da 00        		.byte	0x0
 1640 00db 10        		.uleb128 0x10
 1641 00dc 0F        		.uleb128 0xf
 1642 00dd 00        		.byte	0x0
 1643 00de 0B        		.uleb128 0xb
 1644 00df 0B        		.uleb128 0xb
 1645 00e0 49        		.uleb128 0x49
 1646 00e1 13        		.uleb128 0x13
 1647 00e2 00        		.byte	0x0
 1648 00e3 00        		.byte	0x0
 1649 00e4 11        		.uleb128 0x11
 1650 00e5 34        		.uleb128 0x34
 1651 00e6 00        		.byte	0x0
 1652 00e7 03        		.uleb128 0x3
 1653 00e8 08        		.uleb128 0x8
GAS LISTING C:\Users\OSZKR~1\AppData\Local\Temp/ccSXhMDa.s 			page 30


 1654 00e9 3A        		.uleb128 0x3a
 1655 00ea 0B        		.uleb128 0xb
 1656 00eb 3B        		.uleb128 0x3b
 1657 00ec 0B        		.uleb128 0xb
 1658 00ed 49        		.uleb128 0x49
 1659 00ee 13        		.uleb128 0x13
 1660 00ef 00        		.byte	0x0
 1661 00f0 00        		.byte	0x0
 1662 00f1 12        		.uleb128 0x12
 1663 00f2 34        		.uleb128 0x34
 1664 00f3 00        		.byte	0x0
 1665 00f4 03        		.uleb128 0x3
 1666 00f5 08        		.uleb128 0x8
 1667 00f6 3A        		.uleb128 0x3a
 1668 00f7 0B        		.uleb128 0xb
 1669 00f8 3B        		.uleb128 0x3b
 1670 00f9 0B        		.uleb128 0xb
 1671 00fa 49        		.uleb128 0x49
 1672 00fb 13        		.uleb128 0x13
 1673 00fc 02        		.uleb128 0x2
 1674 00fd 06        		.uleb128 0x6
 1675 00fe 00        		.byte	0x0
 1676 00ff 00        		.byte	0x0
 1677 0100 13        		.uleb128 0x13
 1678 0101 34        		.uleb128 0x34
 1679 0102 00        		.byte	0x0
 1680 0103 03        		.uleb128 0x3
 1681 0104 0E        		.uleb128 0xe
 1682 0105 3A        		.uleb128 0x3a
 1683 0106 0B        		.uleb128 0xb
 1684 0107 3B        		.uleb128 0x3b
 1685 0108 0B        		.uleb128 0xb
 1686 0109 49        		.uleb128 0x49
 1687 010a 13        		.uleb128 0x13
 1688 010b 02        		.uleb128 0x2
 1689 010c 06        		.uleb128 0x6
 1690 010d 00        		.byte	0x0
 1691 010e 00        		.byte	0x0
 1692 010f 14        		.uleb128 0x14
 1693 0110 2E        		.uleb128 0x2e
 1694 0111 01        		.byte	0x1
 1695 0112 3F        		.uleb128 0x3f
 1696 0113 0C        		.uleb128 0xc
 1697 0114 03        		.uleb128 0x3
 1698 0115 0E        		.uleb128 0xe
 1699 0116 3A        		.uleb128 0x3a
 1700 0117 0B        		.uleb128 0xb
 1701 0118 3B        		.uleb128 0x3b
 1702 0119 0B        		.uleb128 0xb
 1703 011a 27        		.uleb128 0x27
 1704 011b 0C        		.uleb128 0xc
 1705 011c 49        		.uleb128 0x49
 1706 011d 13        		.uleb128 0x13
 1707 011e 11        		.uleb128 0x11
 1708 011f 01        		.uleb128 0x1
 1709 0120 12        		.uleb128 0x12
 1710 0121 01        		.uleb128 0x1
GAS LISTING C:\Users\OSZKR~1\AppData\Local\Temp/ccSXhMDa.s 			page 31


 1711 0122 40        		.uleb128 0x40
 1712 0123 0A        		.uleb128 0xa
 1713 0124 01        		.uleb128 0x1
 1714 0125 13        		.uleb128 0x13
 1715 0126 00        		.byte	0x0
 1716 0127 00        		.byte	0x0
 1717 0128 15        		.uleb128 0x15
 1718 0129 1D        		.uleb128 0x1d
 1719 012a 00        		.byte	0x0
 1720 012b 31        		.uleb128 0x31
 1721 012c 13        		.uleb128 0x13
 1722 012d 11        		.uleb128 0x11
 1723 012e 01        		.uleb128 0x1
 1724 012f 12        		.uleb128 0x12
 1725 0130 01        		.uleb128 0x1
 1726 0131 58        		.uleb128 0x58
 1727 0132 0B        		.uleb128 0xb
 1728 0133 59        		.uleb128 0x59
 1729 0134 0B        		.uleb128 0xb
 1730 0135 00        		.byte	0x0
 1731 0136 00        		.byte	0x0
 1732 0137 16        		.uleb128 0x16
 1733 0138 34        		.uleb128 0x34
 1734 0139 00        		.byte	0x0
 1735 013a 03        		.uleb128 0x3
 1736 013b 0E        		.uleb128 0xe
 1737 013c 3A        		.uleb128 0x3a
 1738 013d 0B        		.uleb128 0xb
 1739 013e 3B        		.uleb128 0x3b
 1740 013f 0B        		.uleb128 0xb
 1741 0140 49        		.uleb128 0x49
 1742 0141 13        		.uleb128 0x13
 1743 0142 3F        		.uleb128 0x3f
 1744 0143 0C        		.uleb128 0xc
 1745 0144 02        		.uleb128 0x2
 1746 0145 0A        		.uleb128 0xa
 1747 0146 00        		.byte	0x0
 1748 0147 00        		.byte	0x0
 1749 0148 17        		.uleb128 0x17
 1750 0149 35        		.uleb128 0x35
 1751 014a 00        		.byte	0x0
 1752 014b 49        		.uleb128 0x49
 1753 014c 13        		.uleb128 0x13
 1754 014d 00        		.byte	0x0
 1755 014e 00        		.byte	0x0
 1756 014f 00        		.byte	0x0
 1757               		.section	.debug_pubnames,"",@progbits
 1758 0000 E800 0000 		.long	0xe8
 1759 0004 0200      		.word	0x2
 1760 0006 0000 0000 		.long	.Ldebug_info0
 1761 000a AE03 0000 		.long	0x3ae
 1762 000e DB00 0000 		.long	0xdb
 1763 0012 5F5F 7665 		.string	"__vector_3"
 1763      6374 6F72 
 1763      5F33 00
 1764 001d EF00 0000 		.long	0xef
 1765 0021 4D6F 746F 		.string	"MotorSpeed"
GAS LISTING C:\Users\OSZKR~1\AppData\Local\Temp/ccSXhMDa.s 			page 32


 1765      7253 7065 
 1765      6564 00
 1766 002c 1601 0000 		.long	0x116
 1767 0030 4D6F 746F 		.string	"MotorDir"
 1767      7244 6972 
 1767      00
 1768 0039 3B01 0000 		.long	0x13b
 1769 003d 5374 6174 		.string	"StatusLED"
 1769      7573 4C45 
 1769      4400 
 1770 0047 6101 0000 		.long	0x161
 1771 004b 4672 6F6E 		.string	"FrontLED"
 1771      744C 4544 
 1771      00
 1772 0054 7F01 0000 		.long	0x17f
 1773 0058 4261 636B 		.string	"BackLED"
 1773      4C45 4400 
 1774 0060 B401 0000 		.long	0x1b4
 1775 0064 496E 6974 		.string	"Init"
 1775      00
 1776 0069 1E02 0000 		.long	0x21e
 1777 006d 4C69 6E65 		.string	"LineData"
 1777      4461 7461 
 1777      00
 1778 0076 4C02 0000 		.long	0x24c
 1779 007a 4F64 6F6D 		.string	"OdometrieData"
 1779      6574 7269 
 1779      6544 6174 
 1779      6100 
 1780 0088 7402 0000 		.long	0x274
 1781 008c 5365 7257 		.string	"SerWrite"
 1781      7269 7465 
 1781      00
 1782 0095 B802 0000 		.long	0x2b8
 1783 0099 5365 7252 		.string	"SerRead"
 1783      6561 6400 
 1784 00a1 1B03 0000 		.long	0x31b
 1785 00a5 506F 6C6C 		.string	"PollSwitch"
 1785      5377 6974 
 1785      6368 00
 1786 00b0 5003 0000 		.long	0x350
 1787 00b4 5374 6172 		.string	"StartSwitch"
 1787      7453 7769 
 1787      7463 6800 
 1788 00c0 6403 0000 		.long	0x364
 1789 00c4 5374 6F70 		.string	"StopSwitch"
 1789      5377 6974 
 1789      6368 00
 1790 00cf 7803 0000 		.long	0x378
 1791 00d3 536C 6565 		.string	"Sleep"
 1791      7000 
 1792 00d9 9603 0000 		.long	0x396
 1793 00dd 636F 756E 		.string	"count72kHz"
 1793      7437 326B 
 1793      487A 00
 1794 00e8 0000 0000 		.long	0x0
 1795               		.section	.debug_aranges,"",@progbits
GAS LISTING C:\Users\OSZKR~1\AppData\Local\Temp/ccSXhMDa.s 			page 33


 1796 0000 1C00 0000 		.long	0x1c
 1797 0004 0200      		.word	0x2
 1798 0006 0000 0000 		.long	.Ldebug_info0
 1799 000a 04        		.byte	0x4
 1800 000b 00        		.byte	0x0
 1801 000c 0000      		.word	0x0
 1802 000e 0000      		.word	0x0
 1803 0010 0000 0000 		.long	.Ltext0
 1804 0014 7802 0000 		.long	.Letext0-.Ltext0
 1805 0018 0000 0000 		.long	0x0
 1806 001c 0000 0000 		.long	0x0
 1807               		.section	.debug_line
 1808 0000 ED03 0000 		.long	.LELT0-.LSLT0
 1809               	.LSLT0:
 1810 0004 0200      		.word	0x2
 1811 0006 1E00 0000 		.long	.LELTP0-.LASLTP0
 1812               	.LASLTP0:
 1813 000a 01        		.byte	0x1
 1814 000b 01        		.byte	0x1
 1815 000c F6        		.byte	0xf6
 1816 000d F5        		.byte	0xf5
 1817 000e 0A        		.byte	0xa
 1818 000f 00        		.byte	0x0
 1819 0010 01        		.byte	0x1
 1820 0011 01        		.byte	0x1
 1821 0012 01        		.byte	0x1
 1822 0013 01        		.byte	0x1
 1823 0014 00        		.byte	0x0
 1824 0015 00        		.byte	0x0
 1825 0016 00        		.byte	0x0
 1826 0017 01        		.byte	0x1
 1827 0018 2E2E      		.ascii	".."
 1828 001a 00        		.byte	0
 1829 001b 00        		.byte	0x0
 1830 001c 6173 7572 		.string	"asuro.c"
 1830      6F2E 6300 
 1831 0024 01        		.uleb128 0x1
 1832 0025 00        		.uleb128 0x0
 1833 0026 00        		.uleb128 0x0
 1834 0027 00        		.byte	0x0
 1835               	.LELTP0:
 1836 0028 00        		.byte	0x0
 1837 0029 05        		.uleb128 0x5
 1838 002a 02        		.byte	0x2
 1839 002b 0000 0000 		.long	.LM1
 1840 002f 36        		.byte	0x36
 1841 0030 00        		.byte	0x0
 1842 0031 05        		.uleb128 0x5
 1843 0032 02        		.byte	0x2
 1844 0033 0000 0000 		.long	.LM2
 1845 0037 15        		.byte	0x15
 1846 0038 00        		.byte	0x0
 1847 0039 05        		.uleb128 0x5
 1848 003a 02        		.byte	0x2
 1849 003b 0000 0000 		.long	.LM3
 1850 003f 15        		.byte	0x15
 1851 0040 00        		.byte	0x0
GAS LISTING C:\Users\OSZKR~1\AppData\Local\Temp/ccSXhMDa.s 			page 34


 1852 0041 05        		.uleb128 0x5
 1853 0042 02        		.byte	0x2
 1854 0043 0000 0000 		.long	.LM4
 1855 0047 3E        		.byte	0x3e
 1856 0048 00        		.byte	0x0
 1857 0049 05        		.uleb128 0x5
 1858 004a 02        		.byte	0x2
 1859 004b 0000 0000 		.long	.LM5
 1860 004f 15        		.byte	0x15
 1861 0050 00        		.byte	0x0
 1862 0051 05        		.uleb128 0x5
 1863 0052 02        		.byte	0x2
 1864 0053 0000 0000 		.long	.LM6
 1865 0057 15        		.byte	0x15
 1866 0058 00        		.byte	0x0
 1867 0059 05        		.uleb128 0x5
 1868 005a 02        		.byte	0x2
 1869 005b 0000 0000 		.long	.LM7
 1870 005f 15        		.byte	0x15
 1871 0060 00        		.byte	0x0
 1872 0061 05        		.uleb128 0x5
 1873 0062 02        		.byte	0x2
 1874 0063 0000 0000 		.long	.LM8
 1875 0067 18        		.byte	0x18
 1876 0068 00        		.byte	0x0
 1877 0069 05        		.uleb128 0x5
 1878 006a 02        		.byte	0x2
 1879 006b 0000 0000 		.long	.LM9
 1880 006f 15        		.byte	0x15
 1881 0070 00        		.byte	0x0
 1882 0071 05        		.uleb128 0x5
 1883 0072 02        		.byte	0x2
 1884 0073 0000 0000 		.long	.LM10
 1885 0077 15        		.byte	0x15
 1886 0078 00        		.byte	0x0
 1887 0079 05        		.uleb128 0x5
 1888 007a 02        		.byte	0x2
 1889 007b 0000 0000 		.long	.LM11
 1890 007f 15        		.byte	0x15
 1891 0080 00        		.byte	0x0
 1892 0081 05        		.uleb128 0x5
 1893 0082 02        		.byte	0x2
 1894 0083 0000 0000 		.long	.LM12
 1895 0087 1A        		.byte	0x1a
 1896 0088 00        		.byte	0x0
 1897 0089 05        		.uleb128 0x5
 1898 008a 02        		.byte	0x2
 1899 008b 0000 0000 		.long	.LM13
 1900 008f 15        		.byte	0x15
 1901 0090 00        		.byte	0x0
 1902 0091 05        		.uleb128 0x5
 1903 0092 02        		.byte	0x2
 1904 0093 0000 0000 		.long	.LM14
 1905 0097 15        		.byte	0x15
 1906 0098 00        		.byte	0x0
 1907 0099 05        		.uleb128 0x5
 1908 009a 02        		.byte	0x2
GAS LISTING C:\Users\OSZKR~1\AppData\Local\Temp/ccSXhMDa.s 			page 35


 1909 009b 0000 0000 		.long	.LM15
 1910 009f 15        		.byte	0x15
 1911 00a0 00        		.byte	0x0
 1912 00a1 05        		.uleb128 0x5
 1913 00a2 02        		.byte	0x2
 1914 00a3 0000 0000 		.long	.LM16
 1915 00a7 15        		.byte	0x15
 1916 00a8 00        		.byte	0x0
 1917 00a9 05        		.uleb128 0x5
 1918 00aa 02        		.byte	0x2
 1919 00ab 0000 0000 		.long	.LM17
 1920 00af 1B        		.byte	0x1b
 1921 00b0 00        		.byte	0x0
 1922 00b1 05        		.uleb128 0x5
 1923 00b2 02        		.byte	0x2
 1924 00b3 0000 0000 		.long	.LM18
 1925 00b7 15        		.byte	0x15
 1926 00b8 00        		.byte	0x0
 1927 00b9 05        		.uleb128 0x5
 1928 00ba 02        		.byte	0x2
 1929 00bb 0000 0000 		.long	.LM19
 1930 00bf 15        		.byte	0x15
 1931 00c0 00        		.byte	0x0
 1932 00c1 05        		.uleb128 0x5
 1933 00c2 02        		.byte	0x2
 1934 00c3 0000 0000 		.long	.LM20
 1935 00c7 1A        		.byte	0x1a
 1936 00c8 00        		.byte	0x0
 1937 00c9 05        		.uleb128 0x5
 1938 00ca 02        		.byte	0x2
 1939 00cb 0000 0000 		.long	.LM21
 1940 00cf 15        		.byte	0x15
 1941 00d0 00        		.byte	0x0
 1942 00d1 05        		.uleb128 0x5
 1943 00d2 02        		.byte	0x2
 1944 00d3 0000 0000 		.long	.LM22
 1945 00d7 15        		.byte	0x15
 1946 00d8 00        		.byte	0x0
 1947 00d9 05        		.uleb128 0x5
 1948 00da 02        		.byte	0x2
 1949 00db 0000 0000 		.long	.LM23
 1950 00df 15        		.byte	0x15
 1951 00e0 00        		.byte	0x0
 1952 00e1 05        		.uleb128 0x5
 1953 00e2 02        		.byte	0x2
 1954 00e3 0000 0000 		.long	.LM24
 1955 00e7 15        		.byte	0x15
 1956 00e8 00        		.byte	0x0
 1957 00e9 05        		.uleb128 0x5
 1958 00ea 02        		.byte	0x2
 1959 00eb 0000 0000 		.long	.LM25
 1960 00ef 16        		.byte	0x16
 1961 00f0 00        		.byte	0x0
 1962 00f1 05        		.uleb128 0x5
 1963 00f2 02        		.byte	0x2
 1964 00f3 0000 0000 		.long	.LM26
 1965 00f7 15        		.byte	0x15
GAS LISTING C:\Users\OSZKR~1\AppData\Local\Temp/ccSXhMDa.s 			page 36


 1966 00f8 00        		.byte	0x0
 1967 00f9 05        		.uleb128 0x5
 1968 00fa 02        		.byte	0x2
 1969 00fb 0000 0000 		.long	.LM27
 1970 00ff 03        		.byte	0x3
 1971 0100 B07F      		.sleb128 -80
 1972 0102 01        		.byte	0x1
 1973 0103 00        		.byte	0x0
 1974 0104 05        		.uleb128 0x5
 1975 0105 02        		.byte	0x2
 1976 0106 0000 0000 		.long	.LM28
 1977 010a 17        		.byte	0x17
 1978 010b 00        		.byte	0x0
 1979 010c 05        		.uleb128 0x5
 1980 010d 02        		.byte	0x2
 1981 010e 0000 0000 		.long	.LM29
 1982 0112 15        		.byte	0x15
 1983 0113 00        		.byte	0x0
 1984 0114 05        		.uleb128 0x5
 1985 0115 02        		.byte	0x2
 1986 0116 0000 0000 		.long	.LM30
 1987 011a 15        		.byte	0x15
 1988 011b 00        		.byte	0x0
 1989 011c 05        		.uleb128 0x5
 1990 011d 02        		.byte	0x2
 1991 011e 0000 0000 		.long	.LM31
 1992 0122 17        		.byte	0x17
 1993 0123 00        		.byte	0x0
 1994 0124 05        		.uleb128 0x5
 1995 0125 02        		.byte	0x2
 1996 0126 0000 0000 		.long	.LM32
 1997 012a 15        		.byte	0x15
 1998 012b 00        		.byte	0x0
 1999 012c 05        		.uleb128 0x5
 2000 012d 02        		.byte	0x2
 2001 012e 0000 0000 		.long	.LM33
 2002 0132 15        		.byte	0x15
 2003 0133 00        		.byte	0x0
 2004 0134 05        		.uleb128 0x5
 2005 0135 02        		.byte	0x2
 2006 0136 0000 0000 		.long	.LM34
 2007 013a 15        		.byte	0x15
 2008 013b 00        		.byte	0x0
 2009 013c 05        		.uleb128 0x5
 2010 013d 02        		.byte	0x2
 2011 013e 0000 0000 		.long	.LM35
 2012 0142 17        		.byte	0x17
 2013 0143 00        		.byte	0x0
 2014 0144 05        		.uleb128 0x5
 2015 0145 02        		.byte	0x2
 2016 0146 0000 0000 		.long	.LM36
 2017 014a 15        		.byte	0x15
 2018 014b 00        		.byte	0x0
 2019 014c 05        		.uleb128 0x5
 2020 014d 02        		.byte	0x2
 2021 014e 0000 0000 		.long	.LM37
 2022 0152 17        		.byte	0x17
GAS LISTING C:\Users\OSZKR~1\AppData\Local\Temp/ccSXhMDa.s 			page 37


 2023 0153 00        		.byte	0x0
 2024 0154 05        		.uleb128 0x5
 2025 0155 02        		.byte	0x2
 2026 0156 0000 0000 		.long	.LM38
 2027 015a 16        		.byte	0x16
 2028 015b 00        		.byte	0x0
 2029 015c 05        		.uleb128 0x5
 2030 015d 02        		.byte	0x2
 2031 015e 0000 0000 		.long	.LM39
 2032 0162 17        		.byte	0x17
 2033 0163 00        		.byte	0x0
 2034 0164 05        		.uleb128 0x5
 2035 0165 02        		.byte	0x2
 2036 0166 0000 0000 		.long	.LM40
 2037 016a 15        		.byte	0x15
 2038 016b 00        		.byte	0x0
 2039 016c 05        		.uleb128 0x5
 2040 016d 02        		.byte	0x2
 2041 016e 0000 0000 		.long	.LM41
 2042 0172 3E        		.byte	0x3e
 2043 0173 00        		.byte	0x0
 2044 0174 05        		.uleb128 0x5
 2045 0175 02        		.byte	0x2
 2046 0176 0000 0000 		.long	.LM42
 2047 017a 03        		.byte	0x3
 2048 017b 59        		.sleb128 -39
 2049 017c 01        		.byte	0x1
 2050 017d 00        		.byte	0x0
 2051 017e 05        		.uleb128 0x5
 2052 017f 02        		.byte	0x2
 2053 0180 0000 0000 		.long	.LM43
 2054 0184 15        		.byte	0x15
 2055 0185 00        		.byte	0x0
 2056 0186 05        		.uleb128 0x5
 2057 0187 02        		.byte	0x2
 2058 0188 0000 0000 		.long	.LM44
 2059 018c 15        		.byte	0x15
 2060 018d 00        		.byte	0x0
 2061 018e 05        		.uleb128 0x5
 2062 018f 02        		.byte	0x2
 2063 0190 0000 0000 		.long	.LM45
 2064 0194 25        		.byte	0x25
 2065 0195 00        		.byte	0x0
 2066 0196 05        		.uleb128 0x5
 2067 0197 02        		.byte	0x2
 2068 0198 0000 0000 		.long	.LM46
 2069 019c 15        		.byte	0x15
 2070 019d 00        		.byte	0x0
 2071 019e 05        		.uleb128 0x5
 2072 019f 02        		.byte	0x2
 2073 01a0 0000 0000 		.long	.LM47
 2074 01a4 0C        		.byte	0xc
 2075 01a5 00        		.byte	0x0
 2076 01a6 05        		.uleb128 0x5
 2077 01a7 02        		.byte	0x2
 2078 01a8 0000 0000 		.long	.LM48
 2079 01ac 15        		.byte	0x15
GAS LISTING C:\Users\OSZKR~1\AppData\Local\Temp/ccSXhMDa.s 			page 38


 2080 01ad 00        		.byte	0x0
 2081 01ae 05        		.uleb128 0x5
 2082 01af 02        		.byte	0x2
 2083 01b0 0000 0000 		.long	.LM49
 2084 01b4 0D        		.byte	0xd
 2085 01b5 00        		.byte	0x0
 2086 01b6 05        		.uleb128 0x5
 2087 01b7 02        		.byte	0x2
 2088 01b8 0000 0000 		.long	.LM50
 2089 01bc 15        		.byte	0x15
 2090 01bd 00        		.byte	0x0
 2091 01be 05        		.uleb128 0x5
 2092 01bf 02        		.byte	0x2
 2093 01c0 0000 0000 		.long	.LM51
 2094 01c4 47        		.byte	0x47
 2095 01c5 00        		.byte	0x0
 2096 01c6 05        		.uleb128 0x5
 2097 01c7 02        		.byte	0x2
 2098 01c8 0000 0000 		.long	.LM52
 2099 01cc 15        		.byte	0x15
 2100 01cd 00        		.byte	0x0
 2101 01ce 05        		.uleb128 0x5
 2102 01cf 02        		.byte	0x2
 2103 01d0 0000 0000 		.long	.LM53
 2104 01d4 15        		.byte	0x15
 2105 01d5 00        		.byte	0x0
 2106 01d6 05        		.uleb128 0x5
 2107 01d7 02        		.byte	0x2
 2108 01d8 0000 0000 		.long	.LM54
 2109 01dc 15        		.byte	0x15
 2110 01dd 00        		.byte	0x0
 2111 01de 05        		.uleb128 0x5
 2112 01df 02        		.byte	0x2
 2113 01e0 0000 0000 		.long	.LM55
 2114 01e4 15        		.byte	0x15
 2115 01e5 00        		.byte	0x0
 2116 01e6 05        		.uleb128 0x5
 2117 01e7 02        		.byte	0x2
 2118 01e8 0000 0000 		.long	.LM56
 2119 01ec 15        		.byte	0x15
 2120 01ed 00        		.byte	0x0
 2121 01ee 05        		.uleb128 0x5
 2122 01ef 02        		.byte	0x2
 2123 01f0 0000 0000 		.long	.LM57
 2124 01f4 16        		.byte	0x16
 2125 01f5 00        		.byte	0x0
 2126 01f6 05        		.uleb128 0x5
 2127 01f7 02        		.byte	0x2
 2128 01f8 0000 0000 		.long	.LM58
 2129 01fc 15        		.byte	0x15
 2130 01fd 00        		.byte	0x0
 2131 01fe 05        		.uleb128 0x5
 2132 01ff 02        		.byte	0x2
 2133 0200 0000 0000 		.long	.LM59
 2134 0204 15        		.byte	0x15
 2135 0205 00        		.byte	0x0
 2136 0206 05        		.uleb128 0x5
GAS LISTING C:\Users\OSZKR~1\AppData\Local\Temp/ccSXhMDa.s 			page 39


 2137 0207 02        		.byte	0x2
 2138 0208 0000 0000 		.long	.LM60
 2139 020c 15        		.byte	0x15
 2140 020d 00        		.byte	0x0
 2141 020e 05        		.uleb128 0x5
 2142 020f 02        		.byte	0x2
 2143 0210 0000 0000 		.long	.LM61
 2144 0214 15        		.byte	0x15
 2145 0215 00        		.byte	0x0
 2146 0216 05        		.uleb128 0x5
 2147 0217 02        		.byte	0x2
 2148 0218 0000 0000 		.long	.LM62
 2149 021c 15        		.byte	0x15
 2150 021d 00        		.byte	0x0
 2151 021e 05        		.uleb128 0x5
 2152 021f 02        		.byte	0x2
 2153 0220 0000 0000 		.long	.LM63
 2154 0224 18        		.byte	0x18
 2155 0225 00        		.byte	0x0
 2156 0226 05        		.uleb128 0x5
 2157 0227 02        		.byte	0x2
 2158 0228 0000 0000 		.long	.LM64
 2159 022c 15        		.byte	0x15
 2160 022d 00        		.byte	0x0
 2161 022e 05        		.uleb128 0x5
 2162 022f 02        		.byte	0x2
 2163 0230 0000 0000 		.long	.LM65
 2164 0234 15        		.byte	0x15
 2165 0235 00        		.byte	0x0
 2166 0236 05        		.uleb128 0x5
 2167 0237 02        		.byte	0x2
 2168 0238 0000 0000 		.long	.LM66
 2169 023c 16        		.byte	0x16
 2170 023d 00        		.byte	0x0
 2171 023e 05        		.uleb128 0x5
 2172 023f 02        		.byte	0x2
 2173 0240 0000 0000 		.long	.LM67
 2174 0244 15        		.byte	0x15
 2175 0245 00        		.byte	0x0
 2176 0246 05        		.uleb128 0x5
 2177 0247 02        		.byte	0x2
 2178 0248 0000 0000 		.long	.LM68
 2179 024c 15        		.byte	0x15
 2180 024d 00        		.byte	0x0
 2181 024e 05        		.uleb128 0x5
 2182 024f 02        		.byte	0x2
 2183 0250 0000 0000 		.long	.LM69
 2184 0254 15        		.byte	0x15
 2185 0255 00        		.byte	0x0
 2186 0256 05        		.uleb128 0x5
 2187 0257 02        		.byte	0x2
 2188 0258 0000 0000 		.long	.LM70
 2189 025c 15        		.byte	0x15
 2190 025d 00        		.byte	0x0
 2191 025e 05        		.uleb128 0x5
 2192 025f 02        		.byte	0x2
 2193 0260 0000 0000 		.long	.LM71
GAS LISTING C:\Users\OSZKR~1\AppData\Local\Temp/ccSXhMDa.s 			page 40


 2194 0264 16        		.byte	0x16
 2195 0265 00        		.byte	0x0
 2196 0266 05        		.uleb128 0x5
 2197 0267 02        		.byte	0x2
 2198 0268 0000 0000 		.long	.LM72
 2199 026c 15        		.byte	0x15
 2200 026d 00        		.byte	0x0
 2201 026e 05        		.uleb128 0x5
 2202 026f 02        		.byte	0x2
 2203 0270 0000 0000 		.long	.LM73
 2204 0274 15        		.byte	0x15
 2205 0275 00        		.byte	0x0
 2206 0276 05        		.uleb128 0x5
 2207 0277 02        		.byte	0x2
 2208 0278 0000 0000 		.long	.LM74
 2209 027c 15        		.byte	0x15
 2210 027d 00        		.byte	0x0
 2211 027e 05        		.uleb128 0x5
 2212 027f 02        		.byte	0x2
 2213 0280 0000 0000 		.long	.LM75
 2214 0284 15        		.byte	0x15
 2215 0285 00        		.byte	0x0
 2216 0286 05        		.uleb128 0x5
 2217 0287 02        		.byte	0x2
 2218 0288 0000 0000 		.long	.LM76
 2219 028c 15        		.byte	0x15
 2220 028d 00        		.byte	0x0
 2221 028e 05        		.uleb128 0x5
 2222 028f 02        		.byte	0x2
 2223 0290 0000 0000 		.long	.LM77
 2224 0294 18        		.byte	0x18
 2225 0295 00        		.byte	0x0
 2226 0296 05        		.uleb128 0x5
 2227 0297 02        		.byte	0x2
 2228 0298 0000 0000 		.long	.LM78
 2229 029c 16        		.byte	0x16
 2230 029d 00        		.byte	0x0
 2231 029e 05        		.uleb128 0x5
 2232 029f 02        		.byte	0x2
 2233 02a0 0000 0000 		.long	.LM79
 2234 02a4 16        		.byte	0x16
 2235 02a5 00        		.byte	0x0
 2236 02a6 05        		.uleb128 0x5
 2237 02a7 02        		.byte	0x2
 2238 02a8 0000 0000 		.long	.LM80
 2239 02ac 15        		.byte	0x15
 2240 02ad 00        		.byte	0x0
 2241 02ae 05        		.uleb128 0x5
 2242 02af 02        		.byte	0x2
 2243 02b0 0000 0000 		.long	.LM81
 2244 02b4 15        		.byte	0x15
 2245 02b5 00        		.byte	0x0
 2246 02b6 05        		.uleb128 0x5
 2247 02b7 02        		.byte	0x2
 2248 02b8 0000 0000 		.long	.LM82
 2249 02bc 11        		.byte	0x11
 2250 02bd 00        		.byte	0x0
GAS LISTING C:\Users\OSZKR~1\AppData\Local\Temp/ccSXhMDa.s 			page 41


 2251 02be 05        		.uleb128 0x5
 2252 02bf 02        		.byte	0x2
 2253 02c0 0000 0000 		.long	.LM83
 2254 02c4 1A        		.byte	0x1a
 2255 02c5 00        		.byte	0x0
 2256 02c6 05        		.uleb128 0x5
 2257 02c7 02        		.byte	0x2
 2258 02c8 0000 0000 		.long	.LM84
 2259 02cc 17        		.byte	0x17
 2260 02cd 00        		.byte	0x0
 2261 02ce 05        		.uleb128 0x5
 2262 02cf 02        		.byte	0x2
 2263 02d0 0000 0000 		.long	.LM85
 2264 02d4 17        		.byte	0x17
 2265 02d5 00        		.byte	0x0
 2266 02d6 05        		.uleb128 0x5
 2267 02d7 02        		.byte	0x2
 2268 02d8 0000 0000 		.long	.LM86
 2269 02dc 17        		.byte	0x17
 2270 02dd 00        		.byte	0x0
 2271 02de 05        		.uleb128 0x5
 2272 02df 02        		.byte	0x2
 2273 02e0 0000 0000 		.long	.LM87
 2274 02e4 16        		.byte	0x16
 2275 02e5 00        		.byte	0x0
 2276 02e6 05        		.uleb128 0x5
 2277 02e7 02        		.byte	0x2
 2278 02e8 0000 0000 		.long	.LM88
 2279 02ec 16        		.byte	0x16
 2280 02ed 00        		.byte	0x0
 2281 02ee 05        		.uleb128 0x5
 2282 02ef 02        		.byte	0x2
 2283 02f0 0000 0000 		.long	.LM89
 2284 02f4 15        		.byte	0x15
 2285 02f5 00        		.byte	0x0
 2286 02f6 05        		.uleb128 0x5
 2287 02f7 02        		.byte	0x2
 2288 02f8 0000 0000 		.long	.LM90
 2289 02fc 12        		.byte	0x12
 2290 02fd 00        		.byte	0x0
 2291 02fe 05        		.uleb128 0x5
 2292 02ff 02        		.byte	0x2
 2293 0300 0000 0000 		.long	.LM91
 2294 0304 1A        		.byte	0x1a
 2295 0305 00        		.byte	0x0
 2296 0306 05        		.uleb128 0x5
 2297 0307 02        		.byte	0x2
 2298 0308 0000 0000 		.long	.LM92
 2299 030c 19        		.byte	0x19
 2300 030d 00        		.byte	0x0
 2301 030e 05        		.uleb128 0x5
 2302 030f 02        		.byte	0x2
 2303 0310 0000 0000 		.long	.LM93
 2304 0314 15        		.byte	0x15
 2305 0315 00        		.byte	0x0
 2306 0316 05        		.uleb128 0x5
 2307 0317 02        		.byte	0x2
GAS LISTING C:\Users\OSZKR~1\AppData\Local\Temp/ccSXhMDa.s 			page 42


 2308 0318 0000 0000 		.long	.LM94
 2309 031c 12        		.byte	0x12
 2310 031d 00        		.byte	0x0
 2311 031e 05        		.uleb128 0x5
 2312 031f 02        		.byte	0x2
 2313 0320 0000 0000 		.long	.LM95
 2314 0324 1D        		.byte	0x1d
 2315 0325 00        		.byte	0x0
 2316 0326 05        		.uleb128 0x5
 2317 0327 02        		.byte	0x2
 2318 0328 0000 0000 		.long	.LM96
 2319 032c 17        		.byte	0x17
 2320 032d 00        		.byte	0x0
 2321 032e 05        		.uleb128 0x5
 2322 032f 02        		.byte	0x2
 2323 0330 0000 0000 		.long	.LM97
 2324 0334 15        		.byte	0x15
 2325 0335 00        		.byte	0x0
 2326 0336 05        		.uleb128 0x5
 2327 0337 02        		.byte	0x2
 2328 0338 0000 0000 		.long	.LM98
 2329 033c 15        		.byte	0x15
 2330 033d 00        		.byte	0x0
 2331 033e 05        		.uleb128 0x5
 2332 033f 02        		.byte	0x2
 2333 0340 0000 0000 		.long	.LM99
 2334 0344 32        		.byte	0x32
 2335 0345 00        		.byte	0x0
 2336 0346 05        		.uleb128 0x5
 2337 0347 02        		.byte	0x2
 2338 0348 0000 0000 		.long	.LM100
 2339 034c 15        		.byte	0x15
 2340 034d 00        		.byte	0x0
 2341 034e 05        		.uleb128 0x5
 2342 034f 02        		.byte	0x2
 2343 0350 0000 0000 		.long	.LM101
 2344 0354 03        		.byte	0x3
 2345 0355 64        		.sleb128 -28
 2346 0356 01        		.byte	0x1
 2347 0357 00        		.byte	0x0
 2348 0358 05        		.uleb128 0x5
 2349 0359 02        		.byte	0x2
 2350 035a 0000 0000 		.long	.LM102
 2351 035e 15        		.byte	0x15
 2352 035f 00        		.byte	0x0
 2353 0360 05        		.uleb128 0x5
 2354 0361 02        		.byte	0x2
 2355 0362 0000 0000 		.long	.LM103
 2356 0366 15        		.byte	0x15
 2357 0367 00        		.byte	0x0
 2358 0368 05        		.uleb128 0x5
 2359 0369 02        		.byte	0x2
 2360 036a 0000 0000 		.long	.LM104
 2361 036e 15        		.byte	0x15
 2362 036f 00        		.byte	0x0
 2363 0370 05        		.uleb128 0x5
 2364 0371 02        		.byte	0x2
GAS LISTING C:\Users\OSZKR~1\AppData\Local\Temp/ccSXhMDa.s 			page 43


 2365 0372 0000 0000 		.long	.LM105
 2366 0376 16        		.byte	0x16
 2367 0377 00        		.byte	0x0
 2368 0378 05        		.uleb128 0x5
 2369 0379 02        		.byte	0x2
 2370 037a 0000 0000 		.long	.LM106
 2371 037e 17        		.byte	0x17
 2372 037f 00        		.byte	0x0
 2373 0380 05        		.uleb128 0x5
 2374 0381 02        		.byte	0x2
 2375 0382 0000 0000 		.long	.LM107
 2376 0386 18        		.byte	0x18
 2377 0387 00        		.byte	0x0
 2378 0388 05        		.uleb128 0x5
 2379 0389 02        		.byte	0x2
 2380 038a 0000 0000 		.long	.LM108
 2381 038e 15        		.byte	0x15
 2382 038f 00        		.byte	0x0
 2383 0390 05        		.uleb128 0x5
 2384 0391 02        		.byte	0x2
 2385 0392 0000 0000 		.long	.LM109
 2386 0396 15        		.byte	0x15
 2387 0397 00        		.byte	0x0
 2388 0398 05        		.uleb128 0x5
 2389 0399 02        		.byte	0x2
 2390 039a 0000 0000 		.long	.LM110
 2391 039e 15        		.byte	0x15
 2392 039f 00        		.byte	0x0
 2393 03a0 05        		.uleb128 0x5
 2394 03a1 02        		.byte	0x2
 2395 03a2 0000 0000 		.long	.LM111
 2396 03a6 15        		.byte	0x15
 2397 03a7 00        		.byte	0x0
 2398 03a8 05        		.uleb128 0x5
 2399 03a9 02        		.byte	0x2
 2400 03aa 0000 0000 		.long	.LM112
 2401 03ae 15        		.byte	0x15
 2402 03af 00        		.byte	0x0
 2403 03b0 05        		.uleb128 0x5
 2404 03b1 02        		.byte	0x2
 2405 03b2 0000 0000 		.long	.LM113
 2406 03b6 17        		.byte	0x17
 2407 03b7 00        		.byte	0x0
 2408 03b8 05        		.uleb128 0x5
 2409 03b9 02        		.byte	0x2
 2410 03ba 0000 0000 		.long	.LM114
 2411 03be 15        		.byte	0x15
 2412 03bf 00        		.byte	0x0
 2413 03c0 05        		.uleb128 0x5
 2414 03c1 02        		.byte	0x2
 2415 03c2 0000 0000 		.long	.LM115
 2416 03c6 15        		.byte	0x15
 2417 03c7 00        		.byte	0x0
 2418 03c8 05        		.uleb128 0x5
 2419 03c9 02        		.byte	0x2
 2420 03ca 0000 0000 		.long	.LM116
 2421 03ce 18        		.byte	0x18
GAS LISTING C:\Users\OSZKR~1\AppData\Local\Temp/ccSXhMDa.s 			page 44


 2422 03cf 00        		.byte	0x0
 2423 03d0 05        		.uleb128 0x5
 2424 03d1 02        		.byte	0x2
 2425 03d2 0000 0000 		.long	.LM117
 2426 03d6 15        		.byte	0x15
 2427 03d7 00        		.byte	0x0
 2428 03d8 05        		.uleb128 0x5
 2429 03d9 02        		.byte	0x2
 2430 03da 0000 0000 		.long	.LM118
 2431 03de 15        		.byte	0x15
 2432 03df 00        		.byte	0x0
 2433 03e0 05        		.uleb128 0x5
 2434 03e1 02        		.byte	0x2
 2435 03e2 0000 0000 		.long	.LM119
 2436 03e6 15        		.byte	0x15
 2437 03e7 00        		.byte	0x0
 2438 03e8 05        		.uleb128 0x5
 2439 03e9 02        		.byte	0x2
 2440 03ea 0000 0000 		.long	.Letext0
 2441 03ee 00        		.byte	0x0
 2442 03ef 01        		.uleb128 0x1
 2443 03f0 01        		.byte	0x1
 2444               	.LELT0:
 2445 03f1 1600 0000 		.section	.debug_str,"MS",@progbits,1
 2445      0200 1000 
 2445      0000 0101 
 2445      FB0E 0A00 
 2445      0101 0101 
 2446               	.LASF7:
 2447 0000 4672 6F6E 		.string	"FrontLED"
 2447      744C 4544 
 2447      00
 2448               	.LASF25:
 2449 0009 4F64 6F6D 		.string	"OdometrieData"
 2449      6574 7269 
 2449      6544 6174 
 2449      6100 
 2450               	.LASF20:
 2451 0017 6C65 6674 		.string	"left"
 2451      00
 2452               	.LASF36:
 2453 001c 443A 5C4F 		.string	"D:\\OneDrive\\Coding\\asuro\\01 - led disco"
 2453      6E65 4472 
 2453      6976 655C 
 2453      436F 6469 
 2453      6E67 5C61 
 2454               	.LASF9:
 2455 0044 7374 6174 		.string	"status"
 2455      7573 00
 2456               	.LASF35:
 2457 004b 2E2E 2F61 		.string	"../asuro.c"
 2457      7375 726F 
 2457      2E63 00
 2458               	.LASF15:
 2459 0056 536C 6565 		.string	"Sleep"
 2459      7000 
 2460               	.LASF24:
GAS LISTING C:\Users\OSZKR~1\AppData\Local\Temp/ccSXhMDa.s 			page 45


 2461 005c 6461 7461 		.string	"data"
 2461      00
 2462               	.LASF37:
 2463 0061 506F 6C6C 		.string	"PollSwitch"
 2463      5377 6974 
 2463      6368 00
 2464               	.LASF1:
 2465 006c 756E 7369 		.string	"unsigned char"
 2465      676E 6564 
 2465      2063 6861 
 2465      7200 
 2466               	.LASF4:
 2467 007a 6C6F 6E67 		.string	"long unsigned int"
 2467      2075 6E73 
 2467      6967 6E65 
 2467      6420 696E 
 2467      7400 
 2468               	.LASF34:
 2469 008c 474E 5520 		.string	"GNU C 4.3.3"
 2469      4320 342E 
 2469      332E 3300 
 2470               	.LASF11:
 2471 0098 7269 6768 		.string	"right_dir"
 2471      745F 6469 
 2471      7200 
 2472               	.LASF17:
 2473 00a2 5374 6174 		.string	"StatusLED"
 2473      7573 4C45 
 2473      4400 
 2474               	.LASF16:
 2475 00ac 7469 6D65 		.string	"time72kHz"
 2475      3732 6B48 
 2475      7A00 
 2476               	.LASF13:
 2477 00b6 6C65 6674 		.string	"left_speed"
 2477      5F73 7065 
 2477      6564 00
 2478               	.LASF19:
 2479 00c1 636F 6C6F 		.string	"color"
 2479      7200 
 2480               	.LASF8:
 2481 00c7 4D6F 746F 		.string	"MotorDir"
 2481      7244 6972 
 2481      00
 2482               	.LASF32:
 2483 00d0 5374 6172 		.string	"StartSwitch"
 2483      7453 7769 
 2483      7463 6800 
 2484               	.LASF2:
 2485 00dc 756E 7369 		.string	"unsigned int"
 2485      676E 6564 
 2485      2069 6E74 
 2485      00
 2486               	.LASF21:
 2487 00e9 7269 6768 		.string	"right"
 2487      7400 
 2488               	.LASF6:
GAS LISTING C:\Users\OSZKR~1\AppData\Local\Temp/ccSXhMDa.s 			page 46


 2489 00ef 6C6F 6E67 		.string	"long long unsigned int"
 2489      206C 6F6E 
 2489      6720 756E 
 2489      7369 676E 
 2489      6564 2069 
 2490               	.LASF28:
 2491 0106 5365 7252 		.string	"SerRead"
 2491      6561 6400 
 2492               	.LASF26:
 2493 010e 5365 7257 		.string	"SerWrite"
 2493      7269 7465 
 2493      00
 2494               	.LASF10:
 2495 0117 6C65 6674 		.string	"left_dir"
 2495      5F64 6972 
 2495      00
 2496               	.LASF30:
 2497 0120 7469 6D65 		.string	"time"
 2497      00
 2498               	.LASF5:
 2499 0125 6C6F 6E67 		.string	"long long int"
 2499      206C 6F6E 
 2499      6720 696E 
 2499      7400 
 2500               	.LASF29:
 2501 0133 7469 6D65 		.string	"timeout"
 2501      6F75 7400 
 2502               	.LASF12:
 2503 013b 4D6F 746F 		.string	"MotorSpeed"
 2503      7253 7065 
 2503      6564 00
 2504               	.LASF23:
 2505 0146 4C69 6E65 		.string	"LineData"
 2505      4461 7461 
 2505      00
 2506               	.LASF22:
 2507 014f 496E 6974 		.string	"Init"
 2507      00
 2508               	.LASF18:
 2509 0154 4261 636B 		.string	"BackLED"
 2509      4C45 4400 
 2510               	.LASF31:
 2511 015c 5F5F 7665 		.string	"__vector_3"
 2511      6374 6F72 
 2511      5F33 00
 2512               	.LASF3:
 2513 0167 6C6F 6E67 		.string	"long int"
 2513      2069 6E74 
 2513      00
 2514               	.LASF33:
 2515 0170 5374 6F70 		.string	"StopSwitch"
 2515      5377 6974 
 2515      6368 00
 2516               	.LASF0:
 2517 017b 7369 676E 		.string	"signed char"
 2517      6564 2063 
 2517      6861 7200 
GAS LISTING C:\Users\OSZKR~1\AppData\Local\Temp/ccSXhMDa.s 			page 47


 2518               	.LASF27:
 2519 0187 6C65 6E67 		.string	"length"
 2519      7468 00
 2520               	.LASF38:
 2521 018e 636F 756E 		.string	"count72kHz"
 2521      7437 326B 
 2521      487A 00
 2522               	.LASF14:
 2523 0199 7269 6768 		.string	"right_speed"
 2523      745F 7370 
 2523      6565 6400 
 2524               	.global __do_clear_bss
GAS LISTING C:\Users\OSZKR~1\AppData\Local\Temp/ccSXhMDa.s 			page 48


DEFINED SYMBOLS
                            *ABS*:00000000 asuro.c
C:\Users\OSZKR~1\AppData\Local\Temp/ccSXhMDa.s:2      *ABS*:0000003f __SREG__
C:\Users\OSZKR~1\AppData\Local\Temp/ccSXhMDa.s:3      *ABS*:0000003e __SP_H__
C:\Users\OSZKR~1\AppData\Local\Temp/ccSXhMDa.s:4      *ABS*:0000003d __SP_L__
C:\Users\OSZKR~1\AppData\Local\Temp/ccSXhMDa.s:5      *ABS*:00000034 __CCP__
C:\Users\OSZKR~1\AppData\Local\Temp/ccSXhMDa.s:6      *ABS*:00000000 __tmp_reg__
C:\Users\OSZKR~1\AppData\Local\Temp/ccSXhMDa.s:7      *ABS*:00000001 __zero_reg__
C:\Users\OSZKR~1\AppData\Local\Temp/ccSXhMDa.s:18     .text:00000000 __vector_3
                            *COM*:00000001 count72kHz
C:\Users\OSZKR~1\AppData\Local\Temp/ccSXhMDa.s:45     .text:00000022 MotorSpeed
C:\Users\OSZKR~1\AppData\Local\Temp/ccSXhMDa.s:68     .text:00000030 MotorDir
C:\Users\OSZKR~1\AppData\Local\Temp/ccSXhMDa.s:92     .text:00000042 StatusLED
C:\Users\OSZKR~1\AppData\Local\Temp/ccSXhMDa.s:130    .text:00000068 FrontLED
C:\Users\OSZKR~1\AppData\Local\Temp/ccSXhMDa.s:153    .text:0000007a BackLED
C:\Users\OSZKR~1\AppData\Local\Temp/ccSXhMDa.s:194    .text:000000a0 Init
C:\Users\OSZKR~1\AppData\Local\Temp/ccSXhMDa.s:289    .text:000000fc LineData
C:\Users\OSZKR~1\AppData\Local\Temp/ccSXhMDa.s:344    .text:00000138 OdometrieData
C:\Users\OSZKR~1\AppData\Local\Temp/ccSXhMDa.s:405    .text:0000017c SerWrite
C:\Users\OSZKR~1\AppData\Local\Temp/ccSXhMDa.s:442    .text:00000198 SerRead
C:\Users\OSZKR~1\AppData\Local\Temp/ccSXhMDa.s:518    .text:000001ea PollSwitch
C:\Users\OSZKR~1\AppData\Local\Temp/ccSXhMDa.s:593    .text:0000024e StartSwitch
C:\Users\OSZKR~1\AppData\Local\Temp/ccSXhMDa.s:617    .text:00000260 StopSwitch
C:\Users\OSZKR~1\AppData\Local\Temp/ccSXhMDa.s:633    .text:00000268 Sleep

UNDEFINED SYMBOLS
__floatunsisf
__divsf3
__subsf3
__mulsf3
__addsf3
__fixunssfsi
__do_clear_bss
